echo_server;[libstdc++.so.6.0.30];_ZNSt6thread11_State_implINS_8_InvokerISt5tupleIJZN9webserver16eventloop_threadC4ESt8functionIFvvEERKNSt7__cxx1112basic_stringIcSt11char_traitsIcESaIcEEEEUlvE_EEEEE6_M_runEv;_ZNSt6thread8_InvokerISt5tupleIJZN9webserver16eventloop_threadC4ESt8functionIFvvEERKNSt7__cxx1112basic_stringIcSt11char_traitsIcESaIcEEEEUlvE_EEEclEv;_ZNSt6thread8_InvokerISt5tupleIJZN9webserver16eventloop_threadC4ESt8functionIFvvEERKNSt7__cxx1112basic_stringIcSt11char_traitsIcESaIcEEEEUlvE_EEE9_M_invokeIJLm0EEEEvSt12_Index_tupleIJXspT_EEE;_ZSt8__invokeIZN9webserver16eventloop_threadC4ESt8functionIFvvEERKNSt7__cxx1112basic_stringIcSt11char_traitsIcESaIcEEEEUlvE_JEENSt15__invoke_resultIT_JDpT0_EE4typeEOSF_DpOSG_;_ZSt13__invoke_implIvZN9webserver16eventloop_threadC4ESt8functionIFvvEERKNSt7__cxx1112basic_stringIcSt11char_traitsIcESaIcEEEEUlvE_JEET_St14__invoke_otherOT0_DpOT1_;_ZZN9webserver16eventloop_threadC4ESt8functionIFvvEERKNSt7__cxx1112basic_stringIcSt11char_traitsIcESaIcEEEENKUlvE_clEv;_ZN9webserver9eventloop4loopEv;_ZN9webserver7channel12handle_eventENS_9timestampE;_ZN9webserver7channel23handle_event_with_guardENS_9timestampE 10101010
echo_server;[libstdc++.so.6.0.30];_ZNSt6thread11_State_implINS_8_InvokerISt5tupleIJZN9webserver16eventloop_threadC4ESt8functionIFvvEERKNSt7__cxx1112basic_stringIcSt11char_traitsIcESaIcEEEEUlvE_EEEEE6_M_runEv;_ZNSt6thread8_InvokerISt5tupleIJZN9webserver16eventloop_threadC4ESt8functionIFvvEERKNSt7__cxx1112basic_stringIcSt11char_traitsIcESaIcEEEEUlvE_EEEclEv;_ZNSt6thread8_InvokerISt5tupleIJZN9webserver16eventloop_threadC4ESt8functionIFvvEERKNSt7__cxx1112basic_stringIcSt11char_traitsIcESaIcEEEEUlvE_EEE9_M_invokeIJLm0EEEEvSt12_Index_tupleIJXspT_EEE;_ZSt8__invokeIZN9webserver16eventloop_threadC4ESt8functionIFvvEERKNSt7__cxx1112basic_stringIcSt11char_traitsIcESaIcEEEEUlvE_JEENSt15__invoke_resultIT_JDpT0_EE4typeEOSF_DpOSG_;_ZSt13__invoke_implIvZN9webserver16eventloop_threadC4ESt8functionIFvvEERKNSt7__cxx1112basic_stringIcSt11char_traitsIcESaIcEEEEUlvE_JEET_St14__invoke_otherOT0_DpOT1_;_ZZN9webserver16eventloop_threadC4ESt8functionIFvvEERKNSt7__cxx1112basic_stringIcSt11char_traitsIcESaIcEEEENKUlvE_clEv;_ZN9webserver9eventloop4loopEv;_ZN9webserver7channel12handle_eventENS_9timestampE;_ZN9webserver7channel23handle_event_with_guardENS_9timestampE;_ZNKSt8functionIFvN9webserver9timestampEEEclES1_;_ZNSt17_Function_handlerIFvN9webserver9timestampEEZNS0_14tcp_connectionC4ERNS0_9eventloopEiRKNS0_12inet_addressES8_EUlS1_E_E9_M_invokeERKSt9_Any_dataOS1_;_ZSt10__invoke_rIvRZN9webserver14tcp_connectionC4ERNS0_9eventloopEiRKNS0_12inet_addressES6_EUlNS0_9timestampEE_JS7_EENSt9enable_ifIX16is_invocable_r_vIT_T0_DpT1_EESB_E4typeEOSC_DpOSD_;_ZSt13__invoke_implIvRZN9webserver14tcp_connectionC4ERNS0_9eventloopEiRKNS0_12inet_addressES6_EUlNS0_9timestampEE_JS7_EET_St14__invoke_otherOT0_DpOT1_;_ZZN9webserver14tcp_connectionC4ERNS_9eventloopEiRKNS_12inet_addressES5_ENKUlNS_9timestampEE_clES6_;_ZN9webserver14tcp_connection11handle_readENS_9timestampE 10101010
echo_server;[libstdc++.so.6.0.30];_ZNSt6thread11_State_implINS_8_InvokerISt5tupleIJZN9webserver16eventloop_threadC4ESt8functionIFvvEERKNSt7__cxx1112basic_stringIcSt11char_traitsIcESaIcEEEEUlvE_EEEEE6_M_runEv;_ZNSt6thread8_InvokerISt5tupleIJZN9webserver16eventloop_threadC4ESt8functionIFvvEERKNSt7__cxx1112basic_stringIcSt11char_traitsIcESaIcEEEEUlvE_EEEclEv;_ZNSt6thread8_InvokerISt5tupleIJZN9webserver16eventloop_threadC4ESt8functionIFvvEERKNSt7__cxx1112basic_stringIcSt11char_traitsIcESaIcEEEEUlvE_EEE9_M_invokeIJLm0EEEEvSt12_Index_tupleIJXspT_EEE;_ZSt8__invokeIZN9webserver16eventloop_threadC4ESt8functionIFvvEERKNSt7__cxx1112basic_stringIcSt11char_traitsIcESaIcEEEEUlvE_JEENSt15__invoke_resultIT_JDpT0_EE4typeEOSF_DpOSG_;_ZSt13__invoke_implIvZN9webserver16eventloop_threadC4ESt8functionIFvvEERKNSt7__cxx1112basic_stringIcSt11char_traitsIcESaIcEEEEUlvE_JEET_St14__invoke_otherOT0_DpOT1_;_ZZN9webserver16eventloop_threadC4ESt8functionIFvvEERKNSt7__cxx1112basic_stringIcSt11char_traitsIcESaIcEEEENKUlvE_clEv;_ZN9webserver9eventloop4loopEv;_ZN9webserver7channel12handle_eventENS_9timestampE;_ZN9webserver7channel23handle_event_with_guardENS_9timestampE;_ZNKSt8functionIFvN9webserver9timestampEEEclES1_;_ZNSt17_Function_handlerIFvN9webserver9timestampEEZNS0_14tcp_connectionC4ERNS0_9eventloopEiRKNS0_12inet_addressES8_EUlS1_E_E9_M_invokeERKSt9_Any_dataOS1_;_ZSt10__invoke_rIvRZN9webserver14tcp_connectionC4ERNS0_9eventloopEiRKNS0_12inet_addressES6_EUlNS0_9timestampEE_JS7_EENSt9enable_ifIX16is_invocable_r_vIT_T0_DpT1_EESB_E4typeEOSC_DpOSD_;_ZSt13__invoke_implIvRZN9webserver14tcp_connectionC4ERNS0_9eventloopEiRKNS0_12inet_addressES6_EUlNS0_9timestampEE_JS7_EET_St14__invoke_otherOT0_DpOT1_;_ZZN9webserver14tcp_connectionC4ERNS_9eventloopEiRKNS_12inet_addressES5_ENKUlNS_9timestampEE_clES6_;_ZN9webserver14tcp_connection11handle_readENS_9timestampE;_ZN9webserver14tcp_connection12handle_closeEv;_ZN9webserver14tcp_connection25connection_close_callbackEv;_ZN9webserver9eventloop11run_in_loopESt8functionIFvvEE;_ZNKSt8functionIFvvEEclEv;_ZNKSt14_Function_base8_M_emptyEv 10101010
echo_server;[libstdc++.so.6.0.30];_ZNSt6thread11_State_implINS_8_InvokerISt5tupleIJZN9webserver16eventloop_threadC4ESt8functionIFvvEERKNSt7__cxx1112basic_stringIcSt11char_traitsIcESaIcEEEEUlvE_EEEEE6_M_runEv;_ZNSt6thread8_InvokerISt5tupleIJZN9webserver16eventloop_threadC4ESt8functionIFvvEERKNSt7__cxx1112basic_stringIcSt11char_traitsIcESaIcEEEEUlvE_EEEclEv;_ZNSt6thread8_InvokerISt5tupleIJZN9webserver16eventloop_threadC4ESt8functionIFvvEERKNSt7__cxx1112basic_stringIcSt11char_traitsIcESaIcEEEEUlvE_EEE9_M_invokeIJLm0EEEEvSt12_Index_tupleIJXspT_EEE;_ZSt8__invokeIZN9webserver16eventloop_threadC4ESt8functionIFvvEERKNSt7__cxx1112basic_stringIcSt11char_traitsIcESaIcEEEEUlvE_JEENSt15__invoke_resultIT_JDpT0_EE4typeEOSF_DpOSG_;_ZSt13__invoke_implIvZN9webserver16eventloop_threadC4ESt8functionIFvvEERKNSt7__cxx1112basic_stringIcSt11char_traitsIcESaIcEEEEUlvE_JEET_St14__invoke_otherOT0_DpOT1_;_ZZN9webserver16eventloop_threadC4ESt8functionIFvvEERKNSt7__cxx1112basic_stringIcSt11char_traitsIcESaIcEEEENKUlvE_clEv;_ZN9webserver9eventloop4loopEv;_ZN9webserver7channel12handle_eventENS_9timestampE;_ZN9webserver7channel23handle_event_with_guardENS_9timestampE;_ZNKSt8functionIFvN9webserver9timestampEEEclES1_;_ZNSt17_Function_handlerIFvN9webserver9timestampEEZNS0_14tcp_connectionC4ERNS0_9eventloopEiRKNS0_12inet_addressES8_EUlS1_E_E9_M_invokeERKSt9_Any_dataOS1_;_ZSt10__invoke_rIvRZN9webserver14tcp_connectionC4ERNS0_9eventloopEiRKNS0_12inet_addressES6_EUlNS0_9timestampEE_JS7_EENSt9enable_ifIX16is_invocable_r_vIT_T0_DpT1_EESB_E4typeEOSC_DpOSD_;_ZSt13__invoke_implIvRZN9webserver14tcp_connectionC4ERNS0_9eventloopEiRKNS0_12inet_addressES6_EUlNS0_9timestampEE_JS7_EET_St14__invoke_otherOT0_DpOT1_;_ZZN9webserver14tcp_connectionC4ERNS_9eventloopEiRKNS_12inet_addressES5_ENKUlNS_9timestampEE_clES6_;_ZN9webserver14tcp_connection11handle_readENS_9timestampE;_ZN9webserver14tcp_connection12handle_closeEv;_ZN9webserver14tcp_connection25connection_close_callbackEv;_ZN9webserver9eventloop11run_in_loopESt8functionIFvvEE;_ZNKSt8functionIFvvEEclEv;_ZNSt17_Function_handlerIFvvEZN9webserver14tcp_connection25connection_close_callbackEvEUlvE_E9_M_invokeERKSt9_Any_data;_ZSt10__invoke_rIvRZN9webserver14tcp_connection25connection_close_callbackEvEUlvE_JEENSt9enable_ifIX16is_invocable_r_vIT_T0_DpT1_EES5_E4typeEOS6_DpOS7_;_ZSt13__invoke_implIvRZN9webserver14tcp_connection25connection_close_callbackEvEUlvE_JEET_St14__invoke_otherOT0_DpOT1_;_ZZN9webserver14tcp_connection25connection_close_callbackEvENKUlvE_clEv;_ZN9webserver14tcp_connection18destroy_connectionEv;_ZN9webserver7channel6removeEv;_ZN9webserver7epoller14remove_channelERNS_7channelE;_ZNSt13unordered_mapIiPN9webserver7channelESt4hashIiESt8equal_toIiESaISt4pairIKiS2_EEE5eraseERS8_;_ZNSt10_HashtableIiSt4pairIKiPN9webserver7channelEESaIS5_ENSt8__detail10_Select1stESt8equal_toIiESt4hashIiENS7_18_Mod_range_hashingENS7_20_Default_ranged_hashENS7_20_Prime_rehash_policyENS7_17_Hashtable_traitsILb0ELb0ELb1EEEE5eraseERS1_;_ZNSt10_HashtableIiSt4pairIKiPN9webserver7channelEESaIS5_ENSt8__detail10_Select1stESt8equal_toIiESt4hashIiENS7_18_Mod_range_hashingENS7_20_Default_ranged_hashENS7_20_Prime_rehash_policyENS7_17_Hashtable_traitsILb0ELb0ELb1EEEE8_M_eraseESt17integral_constantIbLb1EERS1_;_ZNKSt10_HashtableIiSt4pairIKiPN9webserver7channelEESaIS5_ENSt8__detail10_Select1stESt8equal_toIiESt4hashIiENS7_18_Mod_range_hashingENS7_20_Default_ranged_hashENS7_20_Prime_rehash_policyENS7_17_Hashtable_traitsILb0ELb0ELb1EEEE19_M_find_before_nodeEmRS1_m;_ZNKSt8__detail15_Hashtable_baseIiSt4pairIKiPN9webserver7channelEENS_10_Select1stESt8equal_toIiESt4hashIiENS_18_Mod_range_hashingENS_20_Default_ranged_hashENS_17_Hashtable_traitsILb0ELb0ELb1EEEE9_M_equalsERS2_mRKNS_16_Hash_node_valueIS6_Lb0EEE;_ZSt7forwardIRKSt4pairIKiPN9webserver7channelEEEOT_RNSt16remove_referenceIS8_E4typeE 10101010
echo_server;[libstdc++.so.6.0.30];_ZNSt6thread11_State_implINS_8_InvokerISt5tupleIJZN9webserver16eventloop_threadC4ESt8functionIFvvEERKNSt7__cxx1112basic_stringIcSt11char_traitsIcESaIcEEEEUlvE_EEEEE6_M_runEv;_ZNSt6thread8_InvokerISt5tupleIJZN9webserver16eventloop_threadC4ESt8functionIFvvEERKNSt7__cxx1112basic_stringIcSt11char_traitsIcESaIcEEEEUlvE_EEEclEv;_ZNSt6thread8_InvokerISt5tupleIJZN9webserver16eventloop_threadC4ESt8functionIFvvEERKNSt7__cxx1112basic_stringIcSt11char_traitsIcESaIcEEEEUlvE_EEE9_M_invokeIJLm0EEEEvSt12_Index_tupleIJXspT_EEE;_ZSt8__invokeIZN9webserver16eventloop_threadC4ESt8functionIFvvEERKNSt7__cxx1112basic_stringIcSt11char_traitsIcESaIcEEEEUlvE_JEENSt15__invoke_resultIT_JDpT0_EE4typeEOSF_DpOSG_;_ZSt13__invoke_implIvZN9webserver16eventloop_threadC4ESt8functionIFvvEERKNSt7__cxx1112basic_stringIcSt11char_traitsIcESaIcEEEEUlvE_JEET_St14__invoke_otherOT0_DpOT1_;_ZZN9webserver16eventloop_threadC4ESt8functionIFvvEERKNSt7__cxx1112basic_stringIcSt11char_traitsIcESaIcEEEENKUlvE_clEv;_ZN9webserver9eventloop4loopEv;_ZN9webserver7channel12handle_eventENS_9timestampE;_ZN9webserver7channel23handle_event_with_guardENS_9timestampE;_ZNKSt8functionIFvN9webserver9timestampEEEclES1_;_ZNSt17_Function_handlerIFvN9webserver9timestampEEZNS0_14tcp_connectionC4ERNS0_9eventloopEiRKNS0_12inet_addressES8_EUlS1_E_E9_M_invokeERKSt9_Any_dataOS1_;_ZSt10__invoke_rIvRZN9webserver14tcp_connectionC4ERNS0_9eventloopEiRKNS0_12inet_addressES6_EUlNS0_9timestampEE_JS7_EENSt9enable_ifIX16is_invocable_r_vIT_T0_DpT1_EESB_E4typeEOSC_DpOSD_;_ZSt13__invoke_implIvRZN9webserver14tcp_connectionC4ERNS0_9eventloopEiRKNS0_12inet_addressES6_EUlNS0_9timestampEE_JS7_EET_St14__invoke_otherOT0_DpOT1_;_ZZN9webserver14tcp_connectionC4ERNS_9eventloopEiRKNS_12inet_addressES5_ENKUlNS_9timestampEE_clES6_;_ZN9webserver14tcp_connection11handle_readENS_9timestampE;_ZN9webserver14tcp_connection12handle_closeEv;_ZN9webserver14tcp_connection25connection_close_callbackEv;_ZN9webserver9eventloop11run_in_loopESt8functionIFvvEE;_ZNKSt8functionIFvvEEclEv;_ZNSt17_Function_handlerIFvvEZN9webserver14tcp_connection25connection_close_callbackEvEUlvE_E9_M_invokeERKSt9_Any_data;_ZSt10__invoke_rIvRZN9webserver14tcp_connection25connection_close_callbackEvEUlvE_JEENSt9enable_ifIX16is_invocable_r_vIT_T0_DpT1_EES5_E4typeEOS6_DpOS7_;_ZSt13__invoke_implIvRZN9webserver14tcp_connection25connection_close_callbackEvEUlvE_JEET_St14__invoke_otherOT0_DpOT1_;_ZZN9webserver14tcp_connection25connection_close_callbackEvENKUlvE_clEv;_ZN9webserver9eventloop17remove_connectionEm;_ZNSt13unordered_mapImSt10shared_ptrIN9webserver14tcp_connectionEESt4hashImESt8equal_toImESaISt4pairIKmS3_EEE5eraseERS9_;_ZNSt10_HashtableImSt4pairIKmSt10shared_ptrIN9webserver14tcp_connectionEEESaIS6_ENSt8__detail10_Select1stESt8equal_toImESt4hashImENS8_18_Mod_range_hashingENS8_20_Default_ranged_hashENS8_20_Prime_rehash_policyENS8_17_Hashtable_traitsILb0ELb0ELb1EEEE5eraseERS1_;_ZNSt10_HashtableImSt4pairIKmSt10shared_ptrIN9webserver14tcp_connectionEEESaIS6_ENSt8__detail10_Select1stESt8equal_toImESt4hashImENS8_18_Mod_range_hashingENS8_20_Default_ranged_hashENS8_20_Prime_rehash_policyENS8_17_Hashtable_traitsILb0ELb0ELb1EEEE8_M_eraseESt17integral_constantIbLb1EERS1_;_ZNKSt10_HashtableImSt4pairIKmSt10shared_ptrIN9webserver14tcp_connectionEEESaIS6_ENSt8__detail10_Select1stESt8equal_toImESt4hashImENS8_18_Mod_range_hashingENS8_20_Default_ranged_hashENS8_20_Prime_rehash_policyENS8_17_Hashtable_traitsILb0ELb0ELb1EEEE15_M_bucket_indexEm 10101010
echo_server;[libstdc++.so.6.0.30];_ZNSt6thread11_State_implINS_8_InvokerISt5tupleIJZN9webserver16eventloop_threadC4ESt8functionIFvvEERKNSt7__cxx1112basic_stringIcSt11char_traitsIcESaIcEEEEUlvE_EEEEE6_M_runEv;_ZNSt6thread8_InvokerISt5tupleIJZN9webserver16eventloop_threadC4ESt8functionIFvvEERKNSt7__cxx1112basic_stringIcSt11char_traitsIcESaIcEEEEUlvE_EEEclEv;_ZNSt6thread8_InvokerISt5tupleIJZN9webserver16eventloop_threadC4ESt8functionIFvvEERKNSt7__cxx1112basic_stringIcSt11char_traitsIcESaIcEEEEUlvE_EEE9_M_invokeIJLm0EEEEvSt12_Index_tupleIJXspT_EEE;_ZSt8__invokeIZN9webserver16eventloop_threadC4ESt8functionIFvvEERKNSt7__cxx1112basic_stringIcSt11char_traitsIcESaIcEEEEUlvE_JEENSt15__invoke_resultIT_JDpT0_EE4typeEOSF_DpOSG_;_ZSt13__invoke_implIvZN9webserver16eventloop_threadC4ESt8functionIFvvEERKNSt7__cxx1112basic_stringIcSt11char_traitsIcESaIcEEEEUlvE_JEET_St14__invoke_otherOT0_DpOT1_;_ZZN9webserver16eventloop_threadC4ESt8functionIFvvEERKNSt7__cxx1112basic_stringIcSt11char_traitsIcESaIcEEEENKUlvE_clEv;_ZN9webserver9eventloop4loopEv;_ZN9webserver7channel12handle_eventENS_9timestampE;_ZN9webserver7channel23handle_event_with_guardENS_9timestampE;_ZNKSt8functionIFvN9webserver9timestampEEEclES1_;_ZNSt17_Function_handlerIFvN9webserver9timestampEEZNS0_14tcp_connectionC4ERNS0_9eventloopEiRKNS0_12inet_addressES8_EUlS1_E_E9_M_invokeERKSt9_Any_dataOS1_;_ZSt10__invoke_rIvRZN9webserver14tcp_connectionC4ERNS0_9eventloopEiRKNS0_12inet_addressES6_EUlNS0_9timestampEE_JS7_EENSt9enable_ifIX16is_invocable_r_vIT_T0_DpT1_EESB_E4typeEOSC_DpOSD_;_ZSt13__invoke_implIvRZN9webserver14tcp_connectionC4ERNS0_9eventloopEiRKNS0_12inet_addressES6_EUlNS0_9timestampEE_JS7_EET_St14__invoke_otherOT0_DpOT1_;_ZZN9webserver14tcp_connectionC4ERNS_9eventloopEiRKNS_12inet_addressES5_ENKUlNS_9timestampEE_clES6_;_ZN9webserver14tcp_connection11handle_readENS_9timestampE;_ZN9webserver14tcp_connection12handle_closeEv;_ZN9webserver14tcp_connection25connection_close_callbackEv;_ZN9webserver9eventloop11run_in_loopESt8functionIFvvEE;_ZNKSt8functionIFvvEEclEv;_ZNSt17_Function_handlerIFvvEZN9webserver14tcp_connection25connection_close_callbackEvEUlvE_E9_M_invokeERKSt9_Any_data;_ZSt10__invoke_rIvRZN9webserver14tcp_connection25connection_close_callbackEvEUlvE_JEENSt9enable_ifIX16is_invocable_r_vIT_T0_DpT1_EES5_E4typeEOS6_DpOS7_;_ZSt13__invoke_implIvRZN9webserver14tcp_connection25connection_close_callbackEvEUlvE_JEET_St14__invoke_otherOT0_DpOT1_;_ZZN9webserver14tcp_connection25connection_close_callbackEvENKUlvE_clEv;_ZN9webserver9eventloop17remove_connectionEm;_ZNSt13unordered_mapImSt10shared_ptrIN9webserver14tcp_connectionEESt4hashImESt8equal_toImESaISt4pairIKmS3_EEE5eraseERS9_;_ZNSt10_HashtableImSt4pairIKmSt10shared_ptrIN9webserver14tcp_connectionEEESaIS6_ENSt8__detail10_Select1stESt8equal_toImESt4hashImENS8_18_Mod_range_hashingENS8_20_Default_ranged_hashENS8_20_Prime_rehash_policyENS8_17_Hashtable_traitsILb0ELb0ELb1EEEE5eraseERS1_;_ZNSt10_HashtableImSt4pairIKmSt10shared_ptrIN9webserver14tcp_connectionEEESaIS6_ENSt8__detail10_Select1stESt8equal_toImESt4hashImENS8_18_Mod_range_hashingENS8_20_Default_ranged_hashENS8_20_Prime_rehash_policyENS8_17_Hashtable_traitsILb0ELb0ELb1EEEE8_M_eraseESt17integral_constantIbLb1EERS1_;_ZNSt10_HashtableImSt4pairIKmSt10shared_ptrIN9webserver14tcp_connectionEEESaIS6_ENSt8__detail10_Select1stESt8equal_toImESt4hashImENS8_18_Mod_range_hashingENS8_20_Default_ranged_hashENS8_20_Prime_rehash_policyENS8_17_Hashtable_traitsILb0ELb0ELb1EEEE8_M_eraseEmPNS8_15_Hash_node_baseEPNS8_10_Hash_nodeIS6_Lb0EEE;_ZNSt8__detail16_Hashtable_allocISaINS_10_Hash_nodeISt4pairIKmSt10shared_ptrIN9webserver14tcp_connectionEEELb0EEEEE18_M_deallocate_nodeEPS9_ 10101010
echo_server;[libstdc++.so.6.0.30];_ZNSt6thread11_State_implINS_8_InvokerISt5tupleIJZN9webserver16eventloop_threadC4ESt8functionIFvvEERKNSt7__cxx1112basic_stringIcSt11char_traitsIcESaIcEEEEUlvE_EEEEE6_M_runEv;_ZNSt6thread8_InvokerISt5tupleIJZN9webserver16eventloop_threadC4ESt8functionIFvvEERKNSt7__cxx1112basic_stringIcSt11char_traitsIcESaIcEEEEUlvE_EEEclEv;_ZNSt6thread8_InvokerISt5tupleIJZN9webserver16eventloop_threadC4ESt8functionIFvvEERKNSt7__cxx1112basic_stringIcSt11char_traitsIcESaIcEEEEUlvE_EEE9_M_invokeIJLm0EEEEvSt12_Index_tupleIJXspT_EEE;_ZSt8__invokeIZN9webserver16eventloop_threadC4ESt8functionIFvvEERKNSt7__cxx1112basic_stringIcSt11char_traitsIcESaIcEEEEUlvE_JEENSt15__invoke_resultIT_JDpT0_EE4typeEOSF_DpOSG_;_ZSt13__invoke_implIvZN9webserver16eventloop_threadC4ESt8functionIFvvEERKNSt7__cxx1112basic_stringIcSt11char_traitsIcESaIcEEEEUlvE_JEET_St14__invoke_otherOT0_DpOT1_;_ZZN9webserver16eventloop_threadC4ESt8functionIFvvEERKNSt7__cxx1112basic_stringIcSt11char_traitsIcESaIcEEEENKUlvE_clEv;_ZN9webserver9eventloop4loopEv;_ZN9webserver7channel12handle_eventENS_9timestampE;_ZN9webserver7channel23handle_event_with_guardENS_9timestampE;_ZNKSt8functionIFvN9webserver9timestampEEEclES1_;_ZNSt17_Function_handlerIFvN9webserver9timestampEEZNS0_14tcp_connectionC4ERNS0_9eventloopEiRKNS0_12inet_addressES8_EUlS1_E_E9_M_invokeERKSt9_Any_dataOS1_;_ZSt10__invoke_rIvRZN9webserver14tcp_connectionC4ERNS0_9eventloopEiRKNS0_12inet_addressES6_EUlNS0_9timestampEE_JS7_EENSt9enable_ifIX16is_invocable_r_vIT_T0_DpT1_EESB_E4typeEOSC_DpOSD_;_ZSt13__invoke_implIvRZN9webserver14tcp_connectionC4ERNS0_9eventloopEiRKNS0_12inet_addressES6_EUlNS0_9timestampEE_JS7_EET_St14__invoke_otherOT0_DpOT1_;_ZZN9webserver14tcp_connectionC4ERNS_9eventloopEiRKNS_12inet_addressES5_ENKUlNS_9timestampEE_clES6_;_ZN9webserver14tcp_connection11handle_readENS_9timestampE;_ZN9webserver14tcp_connection12handle_closeEv;_ZN9webserver14tcp_connection25connection_close_callbackEv;_ZNSt23enable_shared_from_thisIN9webserver14tcp_connectionEE16shared_from_thisEv;_ZNSt10shared_ptrIN9webserver14tcp_connectionEEC2IS1_vEERKSt8weak_ptrIT_E;_ZNSt12__shared_ptrIN9webserver14tcp_connectionELN9__gnu_cxx12_Lock_policyE2EEC1IS1_vEERKSt10__weak_ptrIT_LS3_2EE;_ZNSt14__shared_countILN9__gnu_cxx12_Lock_policyE2EEC1ERKSt12__weak_countILS1_2EE;_ZNSt16_Sp_counted_baseILN9__gnu_cxx12_Lock_policyE2EE23_M_add_ref_lock_nothrowEv 10101010
echo_server;[libstdc++.so.6.0.30];_ZNSt6thread11_State_implINS_8_InvokerISt5tupleIJZN9webserver16eventloop_threadC4ESt8functionIFvvEERKNSt7__cxx1112basic_stringIcSt11char_traitsIcESaIcEEEEUlvE_EEEEE6_M_runEv;_ZNSt6thread8_InvokerISt5tupleIJZN9webserver16eventloop_threadC4ESt8functionIFvvEERKNSt7__cxx1112basic_stringIcSt11char_traitsIcESaIcEEEEUlvE_EEEclEv;_ZNSt6thread8_InvokerISt5tupleIJZN9webserver16eventloop_threadC4ESt8functionIFvvEERKNSt7__cxx1112basic_stringIcSt11char_traitsIcESaIcEEEEUlvE_EEE9_M_invokeIJLm0EEEEvSt12_Index_tupleIJXspT_EEE;_ZSt8__invokeIZN9webserver16eventloop_threadC4ESt8functionIFvvEERKNSt7__cxx1112basic_stringIcSt11char_traitsIcESaIcEEEEUlvE_JEENSt15__invoke_resultIT_JDpT0_EE4typeEOSF_DpOSG_;_ZSt13__invoke_implIvZN9webserver16eventloop_threadC4ESt8functionIFvvEERKNSt7__cxx1112basic_stringIcSt11char_traitsIcESaIcEEEEUlvE_JEET_St14__invoke_otherOT0_DpOT1_;_ZZN9webserver16eventloop_threadC4ESt8functionIFvvEERKNSt7__cxx1112basic_stringIcSt11char_traitsIcESaIcEEEENKUlvE_clEv;_ZN9webserver9eventloop4loopEv;_ZN9webserver7channel12handle_eventENS_9timestampE;_ZN9webserver7channel23handle_event_with_guardENS_9timestampE;_ZNKSt8functionIFvN9webserver9timestampEEEclES1_;_ZNSt17_Function_handlerIFvN9webserver9timestampEEZNS0_14tcp_connectionC4ERNS0_9eventloopEiRKNS0_12inet_addressES8_EUlS1_E_E9_M_invokeERKSt9_Any_dataOS1_;_ZSt10__invoke_rIvRZN9webserver14tcp_connectionC4ERNS0_9eventloopEiRKNS0_12inet_addressES6_EUlNS0_9timestampEE_JS7_EENSt9enable_ifIX16is_invocable_r_vIT_T0_DpT1_EESB_E4typeEOSC_DpOSD_;_ZSt13__invoke_implIvRZN9webserver14tcp_connectionC4ERNS0_9eventloopEiRKNS0_12inet_addressES6_EUlNS0_9timestampEE_JS7_EET_St14__invoke_otherOT0_DpOT1_;_ZZN9webserver14tcp_connectionC4ERNS_9eventloopEiRKNS_12inet_addressES5_ENKUlNS_9timestampEE_clES6_;_ZN9webserver14tcp_connection11handle_readENS_9timestampE;_ZN9webserver14tcp_connection12handle_closeEv;_ZN9webserver7channel11disable_allEv;_ZN9webserver7channel6updateEv;_ZN9webserver7epoller14update_channelERNS_7channelE;_ZN9webserver7epoller14update_channelEiRNS_7channelE;_ZNSt17basic_string_viewIcSt11char_traitsIcEEC2EPKc 10101010
echo_server;[libstdc++.so.6.0.30];_ZNSt6thread11_State_implINS_8_InvokerISt5tupleIJZN9webserver16eventloop_threadC4ESt8functionIFvvEERKNSt7__cxx1112basic_stringIcSt11char_traitsIcESaIcEEEEUlvE_EEEEE6_M_runEv;_ZNSt6thread8_InvokerISt5tupleIJZN9webserver16eventloop_threadC4ESt8functionIFvvEERKNSt7__cxx1112basic_stringIcSt11char_traitsIcESaIcEEEEUlvE_EEEclEv;_ZNSt6thread8_InvokerISt5tupleIJZN9webserver16eventloop_threadC4ESt8functionIFvvEERKNSt7__cxx1112basic_stringIcSt11char_traitsIcESaIcEEEEUlvE_EEE9_M_invokeIJLm0EEEEvSt12_Index_tupleIJXspT_EEE;_ZSt8__invokeIZN9webserver16eventloop_threadC4ESt8functionIFvvEERKNSt7__cxx1112basic_stringIcSt11char_traitsIcESaIcEEEEUlvE_JEENSt15__invoke_resultIT_JDpT0_EE4typeEOSF_DpOSG_;_ZSt13__invoke_implIvZN9webserver16eventloop_threadC4ESt8functionIFvvEERKNSt7__cxx1112basic_stringIcSt11char_traitsIcESaIcEEEEUlvE_JEET_St14__invoke_otherOT0_DpOT1_;_ZZN9webserver16eventloop_threadC4ESt8functionIFvvEERKNSt7__cxx1112basic_stringIcSt11char_traitsIcESaIcEEEENKUlvE_clEv;_ZN9webserver9eventloop4loopEv;_ZN9webserver7channel12handle_eventENS_9timestampE;_ZN9webserver7channel23handle_event_with_guardENS_9timestampE;_ZNKSt8functionIFvN9webserver9timestampEEEclES1_;_ZNSt17_Function_handlerIFvN9webserver9timestampEEZNS0_14tcp_connectionC4ERNS0_9eventloopEiRKNS0_12inet_addressES8_EUlS1_E_E9_M_invokeERKSt9_Any_dataOS1_;_ZSt10__invoke_rIvRZN9webserver14tcp_connectionC4ERNS0_9eventloopEiRKNS0_12inet_addressES6_EUlNS0_9timestampEE_JS7_EENSt9enable_ifIX16is_invocable_r_vIT_T0_DpT1_EESB_E4typeEOSC_DpOSD_;_ZSt13__invoke_implIvRZN9webserver14tcp_connectionC4ERNS0_9eventloopEiRKNS0_12inet_addressES6_EUlNS0_9timestampEE_JS7_EET_St14__invoke_otherOT0_DpOT1_;_ZZN9webserver14tcp_connectionC4ERNS_9eventloopEiRKNS_12inet_addressES5_ENKUlNS_9timestampEE_clES6_;_ZN9webserver14tcp_connection11handle_readENS_9timestampE;_ZN9webserver6buffer7read_fdEiPi;_ZNK9webserver6buffer14writable_bytesEv;_ZNKSt6vectorIcSaIcEE4sizeEv 10101010
echo_server;[libstdc++.so.6.0.30];_ZNSt6thread11_State_implINS_8_InvokerISt5tupleIJZN9webserver16eventloop_threadC4ESt8functionIFvvEERKNSt7__cxx1112basic_stringIcSt11char_traitsIcESaIcEEEEUlvE_EEEEE6_M_runEv;_ZNSt6thread8_InvokerISt5tupleIJZN9webserver16eventloop_threadC4ESt8functionIFvvEERKNSt7__cxx1112basic_stringIcSt11char_traitsIcESaIcEEEEUlvE_EEEclEv;_ZNSt6thread8_InvokerISt5tupleIJZN9webserver16eventloop_threadC4ESt8functionIFvvEERKNSt7__cxx1112basic_stringIcSt11char_traitsIcESaIcEEEEUlvE_EEE9_M_invokeIJLm0EEEEvSt12_Index_tupleIJXspT_EEE;_ZSt8__invokeIZN9webserver16eventloop_threadC4ESt8functionIFvvEERKNSt7__cxx1112basic_stringIcSt11char_traitsIcESaIcEEEEUlvE_JEENSt15__invoke_resultIT_JDpT0_EE4typeEOSF_DpOSG_;_ZSt13__invoke_implIvZN9webserver16eventloop_threadC4ESt8functionIFvvEERKNSt7__cxx1112basic_stringIcSt11char_traitsIcESaIcEEEEUlvE_JEET_St14__invoke_otherOT0_DpOT1_;_ZZN9webserver16eventloop_threadC4ESt8functionIFvvEERKNSt7__cxx1112basic_stringIcSt11char_traitsIcESaIcEEEENKUlvE_clEv;_ZN9webserver9eventloop4loopEv;_ZN9webserver7channel12handle_eventENS_9timestampE;_ZN9webserver7channel23handle_event_with_guardENS_9timestampE;_ZNKSt8functionIFvN9webserver9timestampEEEclES1_;_ZNSt17_Function_handlerIFvN9webserver9timestampEEZNS0_14tcp_connectionC4ERNS0_9eventloopEiRKNS0_12inet_addressES8_EUlS1_E_E9_M_invokeERKSt9_Any_dataOS1_;_ZSt10__invoke_rIvRZN9webserver14tcp_connectionC4ERNS0_9eventloopEiRKNS0_12inet_addressES6_EUlNS0_9timestampEE_JS7_EENSt9enable_ifIX16is_invocable_r_vIT_T0_DpT1_EESB_E4typeEOSC_DpOSD_;_ZSt13__invoke_implIvRZN9webserver14tcp_connectionC4ERNS0_9eventloopEiRKNS0_12inet_addressES6_EUlNS0_9timestampEE_JS7_EET_St14__invoke_otherOT0_DpOT1_;_ZZN9webserver14tcp_connectionC4ERNS_9eventloopEiRKNS_12inet_addressES5_ENKUlNS_9timestampEE_clES6_;_ZN9webserver14tcp_connection11handle_readENS_9timestampE;_ZNKSt8functionIFvRKSt10shared_ptrIN9webserver14tcp_connectionEEPNS1_6bufferENS1_9timestampEEEclES5_S7_S8_;_ZNSt17_Function_handlerIFvRKSt10shared_ptrIN9webserver14tcp_connectionEEPNS1_6bufferENS1_9timestampEEZN11echo_serverC4ERKNS1_12inet_addressERKNSt7__cxx1112basic_stringIcSt11char_traitsIcESaIcEEEEUlS5_S7_S8_E0_E9_M_invokeERKSt9_Any_dataS5_OS7_OS8_;_ZSt10__invoke_rIvRZN11echo_serverC4ERKN9webserver12inet_addressERKNSt7__cxx1112basic_stringIcSt11char_traitsIcESaIcEEEEUlRKSt10shared_ptrINS1_14tcp_connectionEEPNS1_6bufferENS1_9timestampEE0_JSH_SJ_SK_EENSt9enable_ifIX16is_invocable_r_vIT_T0_DpT1_EESO_E4typeEOSP_DpOSQ_;_ZSt13__invoke_implIvRZN11echo_serverC4ERKN9webserver12inet_addressERKNSt7__cxx1112basic_stringIcSt11char_traitsIcESaIcEEEEUlRKSt10shared_ptrINS1_14tcp_connectionEEPNS1_6bufferENS1_9timestampEE0_JSH_SJ_SK_EET_St14__invoke_otherOT0_DpOT1_;_ZZN11echo_serverC4ERKN9webserver12inet_addressERKNSt7__cxx1112basic_stringIcSt11char_traitsIcESaIcEEEENKUlRKSt10shared_ptrINS0_14tcp_connectionEEPNS0_6bufferENS0_9timestampEE0_clESG_SI_SJ_;_ZN9webserver14tcp_connection4sendERKNSt7__cxx1112basic_stringIcSt11char_traitsIcESaIcEEE;_ZNSt8functionIFvvEED2Ev;_ZNSt14_Function_baseD1Ev;_ZNSt17_Function_handlerIFvvEZN9webserver14tcp_connection4sendERKNSt7__cxx1112basic_stringIcSt11char_traitsIcESaIcEEEEUlvE_E10_M_managerERSt9_Any_dataRKSD_St18_Manager_operation;_ZNSt14_Function_base13_Base_managerIZN9webserver14tcp_connection4sendERKNSt7__cxx1112basic_stringIcSt11char_traitsIcESaIcEEEEUlvE_E10_M_managerERSt9_Any_dataRKSD_St18_Manager_operation;_ZNSt14_Function_base13_Base_managerIZN9webserver14tcp_connection4sendERKNSt7__cxx1112basic_stringIcSt11char_traitsIcESaIcEEEEUlvE_E10_M_destroyERSt9_Any_dataSt17integral_constantIbLb0EE;_ZNSt7__cxx1112basic_stringIcSt11char_traitsIcESaIcEED2Ev 10101010
echo_server;[libstdc++.so.6.0.30];_ZNSt6thread11_State_implINS_8_InvokerISt5tupleIJZN9webserver16eventloop_threadC4ESt8functionIFvvEERKNSt7__cxx1112basic_stringIcSt11char_traitsIcESaIcEEEEUlvE_EEEEE6_M_runEv;_ZNSt6thread8_InvokerISt5tupleIJZN9webserver16eventloop_threadC4ESt8functionIFvvEERKNSt7__cxx1112basic_stringIcSt11char_traitsIcESaIcEEEEUlvE_EEEclEv;_ZNSt6thread8_InvokerISt5tupleIJZN9webserver16eventloop_threadC4ESt8functionIFvvEERKNSt7__cxx1112basic_stringIcSt11char_traitsIcESaIcEEEEUlvE_EEE9_M_invokeIJLm0EEEEvSt12_Index_tupleIJXspT_EEE;_ZSt8__invokeIZN9webserver16eventloop_threadC4ESt8functionIFvvEERKNSt7__cxx1112basic_stringIcSt11char_traitsIcESaIcEEEEUlvE_JEENSt15__invoke_resultIT_JDpT0_EE4typeEOSF_DpOSG_;_ZSt13__invoke_implIvZN9webserver16eventloop_threadC4ESt8functionIFvvEERKNSt7__cxx1112basic_stringIcSt11char_traitsIcESaIcEEEEUlvE_JEET_St14__invoke_otherOT0_DpOT1_;_ZZN9webserver16eventloop_threadC4ESt8functionIFvvEERKNSt7__cxx1112basic_stringIcSt11char_traitsIcESaIcEEEENKUlvE_clEv;_ZN9webserver9eventloop4loopEv;_ZN9webserver7channel12handle_eventENS_9timestampE;_ZN9webserver7channel23handle_event_with_guardENS_9timestampE;_ZNKSt8functionIFvN9webserver9timestampEEEclES1_;_ZNSt17_Function_handlerIFvN9webserver9timestampEEZNS0_14tcp_connectionC4ERNS0_9eventloopEiRKNS0_12inet_addressES8_EUlS1_E_E9_M_invokeERKSt9_Any_dataOS1_;_ZSt10__invoke_rIvRZN9webserver14tcp_connectionC4ERNS0_9eventloopEiRKNS0_12inet_addressES6_EUlNS0_9timestampEE_JS7_EENSt9enable_ifIX16is_invocable_r_vIT_T0_DpT1_EESB_E4typeEOSC_DpOSD_;_ZSt13__invoke_implIvRZN9webserver14tcp_connectionC4ERNS0_9eventloopEiRKNS0_12inet_addressES6_EUlNS0_9timestampEE_JS7_EET_St14__invoke_otherOT0_DpOT1_;_ZZN9webserver14tcp_connectionC4ERNS_9eventloopEiRKNS_12inet_addressES5_ENKUlNS_9timestampEE_clES6_;_ZN9webserver14tcp_connection11handle_readENS_9timestampE;_ZNKSt8functionIFvRKSt10shared_ptrIN9webserver14tcp_connectionEEPNS1_6bufferENS1_9timestampEEEclES5_S7_S8_;_ZNSt17_Function_handlerIFvRKSt10shared_ptrIN9webserver14tcp_connectionEEPNS1_6bufferENS1_9timestampEEZN11echo_serverC4ERKNS1_12inet_addressERKNSt7__cxx1112basic_stringIcSt11char_traitsIcESaIcEEEEUlS5_S7_S8_E0_E9_M_invokeERKSt9_Any_dataS5_OS7_OS8_;_ZSt10__invoke_rIvRZN11echo_serverC4ERKN9webserver12inet_addressERKNSt7__cxx1112basic_stringIcSt11char_traitsIcESaIcEEEEUlRKSt10shared_ptrINS1_14tcp_connectionEEPNS1_6bufferENS1_9timestampEE0_JSH_SJ_SK_EENSt9enable_ifIX16is_invocable_r_vIT_T0_DpT1_EESO_E4typeEOSP_DpOSQ_;_ZSt13__invoke_implIvRZN11echo_serverC4ERKN9webserver12inet_addressERKNSt7__cxx1112basic_stringIcSt11char_traitsIcESaIcEEEEUlRKSt10shared_ptrINS1_14tcp_connectionEEPNS1_6bufferENS1_9timestampEE0_JSH_SJ_SK_EET_St14__invoke_otherOT0_DpOT1_;_ZZN11echo_serverC4ERKN9webserver12inet_addressERKNSt7__cxx1112basic_stringIcSt11char_traitsIcESaIcEEEENKUlRKSt10shared_ptrINS0_14tcp_connectionEEPNS0_6bufferENS0_9timestampEE0_clESG_SI_SJ_;_ZN9webserver6buffer22retrieve_all_as_stringB5cxx11Ev;_ZN9webserver6buffer18retrieve_as_stringB5cxx11Em;_ZNK9webserver6buffer14readable_bytesEv 10101010
echo_server;[libstdc++.so.6.0.30];_ZNSt6thread11_State_implINS_8_InvokerISt5tupleIJZN9webserver16eventloop_threadC4ESt8functionIFvvEERKNSt7__cxx1112basic_stringIcSt11char_traitsIcESaIcEEEEUlvE_EEEEE6_M_runEv;_ZNSt6thread8_InvokerISt5tupleIJZN9webserver16eventloop_threadC4ESt8functionIFvvEERKNSt7__cxx1112basic_stringIcSt11char_traitsIcESaIcEEEEUlvE_EEEclEv;_ZNSt6thread8_InvokerISt5tupleIJZN9webserver16eventloop_threadC4ESt8functionIFvvEERKNSt7__cxx1112basic_stringIcSt11char_traitsIcESaIcEEEEUlvE_EEE9_M_invokeIJLm0EEEEvSt12_Index_tupleIJXspT_EEE;_ZSt8__invokeIZN9webserver16eventloop_threadC4ESt8functionIFvvEERKNSt7__cxx1112basic_stringIcSt11char_traitsIcESaIcEEEEUlvE_JEENSt15__invoke_resultIT_JDpT0_EE4typeEOSF_DpOSG_;_ZSt13__invoke_implIvZN9webserver16eventloop_threadC4ESt8functionIFvvEERKNSt7__cxx1112basic_stringIcSt11char_traitsIcESaIcEEEEUlvE_JEET_St14__invoke_otherOT0_DpOT1_;_ZZN9webserver16eventloop_threadC4ESt8functionIFvvEERKNSt7__cxx1112basic_stringIcSt11char_traitsIcESaIcEEEENKUlvE_clEv;_ZN9webserver9eventloop4loopEv;_ZN9webserver7channel12handle_eventENS_9timestampE;_ZN9webserver7channel23handle_event_with_guardENS_9timestampE;_ZNKSt8functionIFvN9webserver9timestampEEEclES1_;_ZNSt17_Function_handlerIFvN9webserver9timestampEEZNS0_14tcp_connectionC4ERNS0_9eventloopEiRKNS0_12inet_addressES8_EUlS1_E_E9_M_invokeERKSt9_Any_dataOS1_;_ZSt10__invoke_rIvRZN9webserver14tcp_connectionC4ERNS0_9eventloopEiRKNS0_12inet_addressES6_EUlNS0_9timestampEE_JS7_EENSt9enable_ifIX16is_invocable_r_vIT_T0_DpT1_EESB_E4typeEOSC_DpOSD_;_ZSt13__invoke_implIvRZN9webserver14tcp_connectionC4ERNS0_9eventloopEiRKNS0_12inet_addressES6_EUlNS0_9timestampEE_JS7_EET_St14__invoke_otherOT0_DpOT1_;_ZZN9webserver14tcp_connectionC4ERNS_9eventloopEiRKNS_12inet_addressES5_ENKUlNS_9timestampEE_clES6_;_ZN9webserver14tcp_connection11handle_readENS_9timestampE;_ZNKSt8functionIFvRKSt10shared_ptrIN9webserver14tcp_connectionEEPNS1_6bufferENS1_9timestampEEEclES5_S7_S8_;_ZNSt17_Function_handlerIFvRKSt10shared_ptrIN9webserver14tcp_connectionEEPNS1_6bufferENS1_9timestampEEZN11echo_serverC4ERKNS1_12inet_addressERKNSt7__cxx1112basic_stringIcSt11char_traitsIcESaIcEEEEUlS5_S7_S8_E0_E9_M_invokeERKSt9_Any_dataS5_OS7_OS8_;_ZSt10__invoke_rIvRZN11echo_serverC4ERKN9webserver12inet_addressERKNSt7__cxx1112basic_stringIcSt11char_traitsIcESaIcEEEEUlRKSt10shared_ptrINS1_14tcp_connectionEEPNS1_6bufferENS1_9timestampEE0_JSH_SJ_SK_EENSt9enable_ifIX16is_invocable_r_vIT_T0_DpT1_EESO_E4typeEOSP_DpOSQ_;_ZSt13__invoke_implIvRZN11echo_serverC4ERKN9webserver12inet_addressERKNSt7__cxx1112basic_stringIcSt11char_traitsIcESaIcEEEEUlRKSt10shared_ptrINS1_14tcp_connectionEEPNS1_6bufferENS1_9timestampEE0_JSH_SJ_SK_EET_St14__invoke_otherOT0_DpOT1_;_ZZN11echo_serverC4ERKN9webserver12inet_addressERKNSt7__cxx1112basic_stringIcSt11char_traitsIcESaIcEEEENKUlRKSt10shared_ptrINS0_14tcp_connectionEEPNS0_6bufferENS0_9timestampEE0_clESG_SI_SJ_;_ZN9webserver6buffer22retrieve_all_as_stringB5cxx11Ev;_ZN9webserver6buffer18retrieve_as_stringB5cxx11Em;_ZNK9webserver6buffer4peekEv;_ZNK9webserver6buffer5beginEv;_ZN9__gnu_cxx17__normal_iteratorIPKcSt6vectorIcSaIcEEEC1ERKS2_ 10101010
echo_server;[libstdc++.so.6.0.30];_ZNSt6thread11_State_implINS_8_InvokerISt5tupleIJZN9webserver16eventloop_threadC4ESt8functionIFvvEERKNSt7__cxx1112basic_stringIcSt11char_traitsIcESaIcEEEEUlvE_EEEEE6_M_runEv;_ZNSt6thread8_InvokerISt5tupleIJZN9webserver16eventloop_threadC4ESt8functionIFvvEERKNSt7__cxx1112basic_stringIcSt11char_traitsIcESaIcEEEEUlvE_EEEclEv;_ZNSt6thread8_InvokerISt5tupleIJZN9webserver16eventloop_threadC4ESt8functionIFvvEERKNSt7__cxx1112basic_stringIcSt11char_traitsIcESaIcEEEEUlvE_EEE9_M_invokeIJLm0EEEEvSt12_Index_tupleIJXspT_EEE;_ZSt8__invokeIZN9webserver16eventloop_threadC4ESt8functionIFvvEERKNSt7__cxx1112basic_stringIcSt11char_traitsIcESaIcEEEEUlvE_JEENSt15__invoke_resultIT_JDpT0_EE4typeEOSF_DpOSG_;_ZSt13__invoke_implIvZN9webserver16eventloop_threadC4ESt8functionIFvvEERKNSt7__cxx1112basic_stringIcSt11char_traitsIcESaIcEEEEUlvE_JEET_St14__invoke_otherOT0_DpOT1_;_ZZN9webserver16eventloop_threadC4ESt8functionIFvvEERKNSt7__cxx1112basic_stringIcSt11char_traitsIcESaIcEEEENKUlvE_clEv;_ZN9webserver9eventloop4loopEv;_ZN9webserver7channel12handle_eventENS_9timestampE;_ZN9webserver7channel23handle_event_with_guardENS_9timestampE;_ZNKSt8functionIFvN9webserver9timestampEEEclES1_;_ZNSt17_Function_handlerIFvN9webserver9timestampEEZNS0_14tcp_connectionC4ERNS0_9eventloopEiRKNS0_12inet_addressES8_EUlS1_E_E9_M_invokeERKSt9_Any_dataOS1_;_ZSt10__invoke_rIvRZN9webserver14tcp_connectionC4ERNS0_9eventloopEiRKNS0_12inet_addressES6_EUlNS0_9timestampEE_JS7_EENSt9enable_ifIX16is_invocable_r_vIT_T0_DpT1_EESB_E4typeEOSC_DpOSD_;_ZSt13__invoke_implIvRZN9webserver14tcp_connectionC4ERNS0_9eventloopEiRKNS0_12inet_addressES6_EUlNS0_9timestampEE_JS7_EET_St14__invoke_otherOT0_DpOT1_;_ZZN9webserver14tcp_connectionC4ERNS_9eventloopEiRKNS_12inet_addressES5_ENKUlNS_9timestampEE_clES6_;_ZN9webserver14tcp_connection11handle_readENS_9timestampE;__GI___readv 10101010
echo_server;[libstdc++.so.6.0.30];_ZNSt6thread11_State_implINS_8_InvokerISt5tupleIJZN9webserver16eventloop_threadC4ESt8functionIFvvEERKNSt7__cxx1112basic_stringIcSt11char_traitsIcESaIcEEEEUlvE_EEEEE6_M_runEv;_ZNSt6thread8_InvokerISt5tupleIJZN9webserver16eventloop_threadC4ESt8functionIFvvEERKNSt7__cxx1112basic_stringIcSt11char_traitsIcESaIcEEEEUlvE_EEEclEv;_ZNSt6thread8_InvokerISt5tupleIJZN9webserver16eventloop_threadC4ESt8functionIFvvEERKNSt7__cxx1112basic_stringIcSt11char_traitsIcESaIcEEEEUlvE_EEE9_M_invokeIJLm0EEEEvSt12_Index_tupleIJXspT_EEE;_ZSt8__invokeIZN9webserver16eventloop_threadC4ESt8functionIFvvEERKNSt7__cxx1112basic_stringIcSt11char_traitsIcESaIcEEEEUlvE_JEENSt15__invoke_resultIT_JDpT0_EE4typeEOSF_DpOSG_;_ZSt13__invoke_implIvZN9webserver16eventloop_threadC4ESt8functionIFvvEERKNSt7__cxx1112basic_stringIcSt11char_traitsIcESaIcEEEEUlvE_JEET_St14__invoke_otherOT0_DpOT1_;_ZZN9webserver16eventloop_threadC4ESt8functionIFvvEERKNSt7__cxx1112basic_stringIcSt11char_traitsIcESaIcEEEENKUlvE_clEv;_ZN9webserver9eventloop4loopEv;_ZN9webserver7channel12handle_eventENS_9timestampE;_ZN9webserver7channel23handle_event_with_guardENS_9timestampE;_ZNKSt8functionIFvN9webserver9timestampEEEclES1_;_ZNSt17_Function_handlerIFvN9webserver9timestampEEZNS0_14tcp_connectionC4ERNS0_9eventloopEiRKNS0_12inet_addressES8_EUlS1_E_E9_M_invokeERKSt9_Any_dataOS1_;_ZSt10__invoke_rIvRZN9webserver14tcp_connectionC4ERNS0_9eventloopEiRKNS0_12inet_addressES6_EUlNS0_9timestampEE_JS7_EENSt9enable_ifIX16is_invocable_r_vIT_T0_DpT1_EESB_E4typeEOSC_DpOSD_;_ZSt13__invoke_implIvRZN9webserver14tcp_connectionC4ERNS0_9eventloopEiRKNS0_12inet_addressES6_EUlNS0_9timestampEE_JS7_EET_St14__invoke_otherOT0_DpOT1_;_ZZN9webserver14tcp_connectionC4ERNS_9eventloopEiRKNS_12inet_addressES5_ENKUlNS_9timestampEE_clES6_;_ZN9webserver14tcp_connection11handle_readENS_9timestampE;__memset_avx2_unaligned_erms 111111110
echo_server;[libstdc++.so.6.0.30];_ZNSt6thread11_State_implINS_8_InvokerISt5tupleIJZN9webserver16eventloop_threadC4ESt8functionIFvvEERKNSt7__cxx1112basic_stringIcSt11char_traitsIcESaIcEEEEUlvE_EEEEE6_M_runEv;_ZNSt6thread8_InvokerISt5tupleIJZN9webserver16eventloop_threadC4ESt8functionIFvvEERKNSt7__cxx1112basic_stringIcSt11char_traitsIcESaIcEEEEUlvE_EEEclEv;_ZNSt6thread8_InvokerISt5tupleIJZN9webserver16eventloop_threadC4ESt8functionIFvvEERKNSt7__cxx1112basic_stringIcSt11char_traitsIcESaIcEEEEUlvE_EEE9_M_invokeIJLm0EEEEvSt12_Index_tupleIJXspT_EEE;_ZSt8__invokeIZN9webserver16eventloop_threadC4ESt8functionIFvvEERKNSt7__cxx1112basic_stringIcSt11char_traitsIcESaIcEEEEUlvE_JEENSt15__invoke_resultIT_JDpT0_EE4typeEOSF_DpOSG_;_ZSt13__invoke_implIvZN9webserver16eventloop_threadC4ESt8functionIFvvEERKNSt7__cxx1112basic_stringIcSt11char_traitsIcESaIcEEEEUlvE_JEET_St14__invoke_otherOT0_DpOT1_;_ZZN9webserver16eventloop_threadC4ESt8functionIFvvEERKNSt7__cxx1112basic_stringIcSt11char_traitsIcESaIcEEEENKUlvE_clEv;_ZN9webserver9eventloop4loopEv;_ZN9webserver7channel12handle_eventENS_9timestampE;_ZN9webserver7channel23handle_event_with_guardENS_9timestampE;_ZNSt17_Function_handlerIFvN9webserver9timestampEEZNS0_14tcp_connectionC4ERNS0_9eventloopEiRKNS0_12inet_addressES8_EUlS1_E_E9_M_invokeERKSt9_Any_dataOS1_ 10101010
echo_server;[libstdc++.so.6.0.30];_ZNSt6thread11_State_implINS_8_InvokerISt5tupleIJZN9webserver16eventloop_threadC4ESt8functionIFvvEERKNSt7__cxx1112basic_stringIcSt11char_traitsIcESaIcEEEEUlvE_EEEEE6_M_runEv;_ZNSt6thread8_InvokerISt5tupleIJZN9webserver16eventloop_threadC4ESt8functionIFvvEERKNSt7__cxx1112basic_stringIcSt11char_traitsIcESaIcEEEEUlvE_EEEclEv;_ZNSt6thread8_InvokerISt5tupleIJZN9webserver16eventloop_threadC4ESt8functionIFvvEERKNSt7__cxx1112basic_stringIcSt11char_traitsIcESaIcEEEEUlvE_EEE9_M_invokeIJLm0EEEEvSt12_Index_tupleIJXspT_EEE;_ZSt8__invokeIZN9webserver16eventloop_threadC4ESt8functionIFvvEERKNSt7__cxx1112basic_stringIcSt11char_traitsIcESaIcEEEEUlvE_JEENSt15__invoke_resultIT_JDpT0_EE4typeEOSF_DpOSG_;_ZSt13__invoke_implIvZN9webserver16eventloop_threadC4ESt8functionIFvvEERKNSt7__cxx1112basic_stringIcSt11char_traitsIcESaIcEEEEUlvE_JEET_St14__invoke_otherOT0_DpOT1_;_ZZN9webserver16eventloop_threadC4ESt8functionIFvvEERKNSt7__cxx1112basic_stringIcSt11char_traitsIcESaIcEEEENKUlvE_clEv;_ZN9webserver9eventloop4loopEv;_ZN9webserver7channel12handle_eventENS_9timestampE;_ZNKSt8weak_ptrIvE4lockEv;_ZNSt10shared_ptrIvEC1ERKSt8weak_ptrIvESt9nothrow_t;_ZNSt12__shared_ptrIvLN9__gnu_cxx12_Lock_policyE2EEC1ERKSt10__weak_ptrIvLS1_2EESt9nothrow_t;_ZNSt14__shared_countILN9__gnu_cxx12_Lock_policyE2EEC2ERKSt12__weak_countILS1_2EESt9nothrow_t;_ZNSt16_Sp_counted_baseILN9__gnu_cxx12_Lock_policyE2EE23_M_add_ref_lock_nothrowEv 10101010
echo_server;[libstdc++.so.6.0.30];_ZNSt6thread11_State_implINS_8_InvokerISt5tupleIJZN9webserver16eventloop_threadC4ESt8functionIFvvEERKNSt7__cxx1112basic_stringIcSt11char_traitsIcESaIcEEEEUlvE_EEEEE6_M_runEv;_ZNSt6thread8_InvokerISt5tupleIJZN9webserver16eventloop_threadC4ESt8functionIFvvEERKNSt7__cxx1112basic_stringIcSt11char_traitsIcESaIcEEEEUlvE_EEEclEv;_ZNSt6thread8_InvokerISt5tupleIJZN9webserver16eventloop_threadC4ESt8functionIFvvEERKNSt7__cxx1112basic_stringIcSt11char_traitsIcESaIcEEEEUlvE_EEE9_M_invokeIJLm0EEEEvSt12_Index_tupleIJXspT_EEE;_ZSt8__invokeIZN9webserver16eventloop_threadC4ESt8functionIFvvEERKNSt7__cxx1112basic_stringIcSt11char_traitsIcESaIcEEEEUlvE_JEENSt15__invoke_resultIT_JDpT0_EE4typeEOSF_DpOSG_;_ZSt13__invoke_implIvZN9webserver16eventloop_threadC4ESt8functionIFvvEERKNSt7__cxx1112basic_stringIcSt11char_traitsIcESaIcEEEEUlvE_JEET_St14__invoke_otherOT0_DpOT1_;_ZZN9webserver16eventloop_threadC4ESt8functionIFvvEERKNSt7__cxx1112basic_stringIcSt11char_traitsIcESaIcEEEENKUlvE_clEv;_ZN9webserver9eventloop4loopEv;_ZN9webserver7channel12handle_eventENS_9timestampE;_ZNSt10shared_ptrIvED1Ev;_ZNSt12__shared_ptrIvLN9__gnu_cxx12_Lock_policyE2EED1Ev;_ZNSt14__shared_countILN9__gnu_cxx12_Lock_policyE2EED2Ev;_ZNSt16_Sp_counted_baseILN9__gnu_cxx12_Lock_policyE2EE10_M_releaseEv;_ZNSt23_Sp_counted_ptr_inplaceIN9webserver14tcp_connectionESaIS1_ELN9__gnu_cxx12_Lock_policyE2EE10_M_disposeEv;_ZNSt16allocator_traitsISaIN9webserver14tcp_connectionEEE7destroyIS1_EEvRS2_PT_;_ZN9__gnu_cxx13new_allocatorIN9webserver14tcp_connectionEE7destroyIS2_EEvPT_;_ZN9webserver14tcp_connectionD1Ev;_ZN9webserver6bufferD1Ev;_ZNSt6vectorIcSaIcEED1Ev;_ZNSt12_Vector_baseIcSaIcEE12_Vector_implD2Ev 10101010
echo_server;[libstdc++.so.6.0.30];_ZNSt6thread11_State_implINS_8_InvokerISt5tupleIJZN9webserver16eventloop_threadC4ESt8functionIFvvEERKNSt7__cxx1112basic_stringIcSt11char_traitsIcESaIcEEEEUlvE_EEEEE6_M_runEv;_ZNSt6thread8_InvokerISt5tupleIJZN9webserver16eventloop_threadC4ESt8functionIFvvEERKNSt7__cxx1112basic_stringIcSt11char_traitsIcESaIcEEEEUlvE_EEEclEv;_ZNSt6thread8_InvokerISt5tupleIJZN9webserver16eventloop_threadC4ESt8functionIFvvEERKNSt7__cxx1112basic_stringIcSt11char_traitsIcESaIcEEEEUlvE_EEE9_M_invokeIJLm0EEEEvSt12_Index_tupleIJXspT_EEE;_ZSt8__invokeIZN9webserver16eventloop_threadC4ESt8functionIFvvEERKNSt7__cxx1112basic_stringIcSt11char_traitsIcESaIcEEEEUlvE_JEENSt15__invoke_resultIT_JDpT0_EE4typeEOSF_DpOSG_;_ZSt13__invoke_implIvZN9webserver16eventloop_threadC4ESt8functionIFvvEERKNSt7__cxx1112basic_stringIcSt11char_traitsIcESaIcEEEEUlvE_JEET_St14__invoke_otherOT0_DpOT1_;_ZZN9webserver16eventloop_threadC4ESt8functionIFvvEERKNSt7__cxx1112basic_stringIcSt11char_traitsIcESaIcEEEENKUlvE_clEv;_ZN9webserver9eventloop4loopEv;_ZN9webserver7channel12handle_eventENS_9timestampE;_ZNSt10shared_ptrIvED1Ev;_ZNSt12__shared_ptrIvLN9__gnu_cxx12_Lock_policyE2EED1Ev;_ZNSt14__shared_countILN9__gnu_cxx12_Lock_policyE2EED2Ev;_ZNSt16_Sp_counted_baseILN9__gnu_cxx12_Lock_policyE2EE10_M_releaseEv;_ZNSt23_Sp_counted_ptr_inplaceIN9webserver14tcp_connectionESaIS1_ELN9__gnu_cxx12_Lock_policyE2EE10_M_disposeEv;_ZNSt16allocator_traitsISaIN9webserver14tcp_connectionEEE7destroyIS1_EEvRS2_PT_;_ZN9__gnu_cxx13new_allocatorIN9webserver14tcp_connectionEE7destroyIS2_EEvPT_;_ZN9webserver14tcp_connectionD1Ev;_ZN9webserver7channelD2Ev;_ZNSt8weak_ptrIvED2Ev;_ZNSt10__weak_ptrIvLN9__gnu_cxx12_Lock_policyE2EED2Ev;_ZNSt12__weak_countILN9__gnu_cxx12_Lock_policyE2EED2Ev 10101010
echo_server;[libstdc++.so.6.0.30];_ZNSt6thread11_State_implINS_8_InvokerISt5tupleIJZN9webserver16eventloop_threadC4ESt8functionIFvvEERKNSt7__cxx1112basic_stringIcSt11char_traitsIcESaIcEEEEUlvE_EEEEE6_M_runEv;_ZNSt6thread8_InvokerISt5tupleIJZN9webserver16eventloop_threadC4ESt8functionIFvvEERKNSt7__cxx1112basic_stringIcSt11char_traitsIcESaIcEEEEUlvE_EEEclEv;_ZNSt6thread8_InvokerISt5tupleIJZN9webserver16eventloop_threadC4ESt8functionIFvvEERKNSt7__cxx1112basic_stringIcSt11char_traitsIcESaIcEEEEUlvE_EEE9_M_invokeIJLm0EEEEvSt12_Index_tupleIJXspT_EEE;_ZSt8__invokeIZN9webserver16eventloop_threadC4ESt8functionIFvvEERKNSt7__cxx1112basic_stringIcSt11char_traitsIcESaIcEEEEUlvE_JEENSt15__invoke_resultIT_JDpT0_EE4typeEOSF_DpOSG_;_ZSt13__invoke_implIvZN9webserver16eventloop_threadC4ESt8functionIFvvEERKNSt7__cxx1112basic_stringIcSt11char_traitsIcESaIcEEEEUlvE_JEET_St14__invoke_otherOT0_DpOT1_;_ZZN9webserver16eventloop_threadC4ESt8functionIFvvEERKNSt7__cxx1112basic_stringIcSt11char_traitsIcESaIcEEEENKUlvE_clEv;_ZN9webserver9eventloop4loopEv;_ZN9webserver7channel12handle_eventENS_9timestampE;_ZNSt10shared_ptrIvED1Ev;_ZNSt12__shared_ptrIvLN9__gnu_cxx12_Lock_policyE2EED1Ev;_ZNSt14__shared_countILN9__gnu_cxx12_Lock_policyE2EED2Ev;_ZNSt16_Sp_counted_baseILN9__gnu_cxx12_Lock_policyE2EE10_M_releaseEv;_ZNSt23_Sp_counted_ptr_inplaceIN9webserver14tcp_connectionESaIS1_ELN9__gnu_cxx12_Lock_policyE2EE10_M_disposeEv;_ZNSt16allocator_traitsISaIN9webserver14tcp_connectionEEE7destroyIS1_EEvRS2_PT_;_ZN9__gnu_cxx13new_allocatorIN9webserver14tcp_connectionEE7destroyIS2_EEvPT_;_ZN9webserver14tcp_connectionD1Ev;__close 10101010
echo_server;[libstdc++.so.6.0.30];_ZNSt6thread11_State_implINS_8_InvokerISt5tupleIJZN9webserver16eventloop_threadC4ESt8functionIFvvEERKNSt7__cxx1112basic_stringIcSt11char_traitsIcESaIcEEEEUlvE_EEEEE6_M_runEv;_ZNSt6thread8_InvokerISt5tupleIJZN9webserver16eventloop_threadC4ESt8functionIFvvEERKNSt7__cxx1112basic_stringIcSt11char_traitsIcESaIcEEEEUlvE_EEEclEv;_ZNSt6thread8_InvokerISt5tupleIJZN9webserver16eventloop_threadC4ESt8functionIFvvEERKNSt7__cxx1112basic_stringIcSt11char_traitsIcESaIcEEEEUlvE_EEE9_M_invokeIJLm0EEEEvSt12_Index_tupleIJXspT_EEE;_ZSt8__invokeIZN9webserver16eventloop_threadC4ESt8functionIFvvEERKNSt7__cxx1112basic_stringIcSt11char_traitsIcESaIcEEEEUlvE_JEENSt15__invoke_resultIT_JDpT0_EE4typeEOSF_DpOSG_;_ZSt13__invoke_implIvZN9webserver16eventloop_threadC4ESt8functionIFvvEERKNSt7__cxx1112basic_stringIcSt11char_traitsIcESaIcEEEEUlvE_JEET_St14__invoke_otherOT0_DpOT1_;_ZZN9webserver16eventloop_threadC4ESt8functionIFvvEERKNSt7__cxx1112basic_stringIcSt11char_traitsIcESaIcEEEENKUlvE_clEv;_ZN9webserver9eventloop4loopEv;_ZN9webserver7epoller4pollEiRSt6vectorIPNS_7channelESaIS3_EE;_ZNSt17basic_string_viewIcSt11char_traitsIcEEC2EPKc;__strlen_avx2 10101010
echo_server;[libstdc++.so.6.0.30];_ZNSt6thread11_State_implINS_8_InvokerISt5tupleIJZN9webserver16eventloop_threadC4ESt8functionIFvvEERKNSt7__cxx1112basic_stringIcSt11char_traitsIcESaIcEEEEUlvE_EEEEE6_M_runEv;_ZNSt6thread8_InvokerISt5tupleIJZN9webserver16eventloop_threadC4ESt8functionIFvvEERKNSt7__cxx1112basic_stringIcSt11char_traitsIcESaIcEEEEUlvE_EEEclEv;_ZNSt6thread8_InvokerISt5tupleIJZN9webserver16eventloop_threadC4ESt8functionIFvvEERKNSt7__cxx1112basic_stringIcSt11char_traitsIcESaIcEEEEUlvE_EEE9_M_invokeIJLm0EEEEvSt12_Index_tupleIJXspT_EEE;_ZSt8__invokeIZN9webserver16eventloop_threadC4ESt8functionIFvvEERKNSt7__cxx1112basic_stringIcSt11char_traitsIcESaIcEEEEUlvE_JEENSt15__invoke_resultIT_JDpT0_EE4typeEOSF_DpOSG_;_ZSt13__invoke_implIvZN9webserver16eventloop_threadC4ESt8functionIFvvEERKNSt7__cxx1112basic_stringIcSt11char_traitsIcESaIcEEEEUlvE_JEET_St14__invoke_otherOT0_DpOT1_;_ZZN9webserver16eventloop_threadC4ESt8functionIFvvEERKNSt7__cxx1112basic_stringIcSt11char_traitsIcESaIcEEEENKUlvE_clEv;_ZN9webserver9eventloop4loopEv;_ZN9webserver7epoller4pollEiRSt6vectorIPNS_7channelESaIS3_EE;_ZNSt6vectorIPN9webserver7channelESaIS2_EE9push_backERKS2_;_ZNSt6vectorIPN9webserver7channelESaIS2_EE17_M_realloc_insertIJRKS2_EEEvN9__gnu_cxx17__normal_iteratorIPS2_S4_EEDpOT_;_ZNSt12_Vector_baseIPN9webserver7channelESaIS2_EE13_M_deallocateEPS2_m;_ZNSt16allocator_traitsISaIPN9webserver7channelEEE10deallocateERS3_PS2_m;cfree@GLIBC_2.2.5 10101010
echo_server;[libstdc++.so.6.0.30];_ZNSt6thread11_State_implINS_8_InvokerISt5tupleIJZN9webserver16eventloop_threadC4ESt8functionIFvvEERKNSt7__cxx1112basic_stringIcSt11char_traitsIcESaIcEEEEUlvE_EEEEE6_M_runEv;_ZNSt6thread8_InvokerISt5tupleIJZN9webserver16eventloop_threadC4ESt8functionIFvvEERKNSt7__cxx1112basic_stringIcSt11char_traitsIcESaIcEEEEUlvE_EEEclEv;_ZNSt6thread8_InvokerISt5tupleIJZN9webserver16eventloop_threadC4ESt8functionIFvvEERKNSt7__cxx1112basic_stringIcSt11char_traitsIcESaIcEEEEUlvE_EEE9_M_invokeIJLm0EEEEvSt12_Index_tupleIJXspT_EEE;_ZSt8__invokeIZN9webserver16eventloop_threadC4ESt8functionIFvvEERKNSt7__cxx1112basic_stringIcSt11char_traitsIcESaIcEEEEUlvE_JEENSt15__invoke_resultIT_JDpT0_EE4typeEOSF_DpOSG_;_ZSt13__invoke_implIvZN9webserver16eventloop_threadC4ESt8functionIFvvEERKNSt7__cxx1112basic_stringIcSt11char_traitsIcESaIcEEEEUlvE_JEET_St14__invoke_otherOT0_DpOT1_;_ZZN9webserver16eventloop_threadC4ESt8functionIFvvEERKNSt7__cxx1112basic_stringIcSt11char_traitsIcESaIcEEEENKUlvE_clEv;_ZN9webserver9eventloop4loopEv;_ZN9webserver9eventloop21run_pending_callbacksEv;_ZNKSt8functionIFvvEEclEv;_ZNSt17_Function_handlerIFvvEZN9webserver9eventloop14add_connectionESt10shared_ptrINS1_14tcp_connectionEEEUlvE_E9_M_invokeERKSt9_Any_data;_ZSt10__invoke_rIvRZN9webserver9eventloop14add_connectionESt10shared_ptrINS0_14tcp_connectionEEEUlvE_JEENSt9enable_ifIX16is_invocable_r_vIT_T0_DpT1_EES8_E4typeEOS9_DpOSA_;_ZSt13__invoke_implIvRZN9webserver9eventloop14add_connectionESt10shared_ptrINS0_14tcp_connectionEEEUlvE_JEET_St14__invoke_otherOT0_DpOT1_;_ZZN9webserver9eventloop14add_connectionESt10shared_ptrINS_14tcp_connectionEEENKUlvE_clEv;_ZN9webserver14tcp_connection20establish_connectionEv;_ZN9webserver7channel14enable_readingEv;_ZN9webserver7channel6updateEv;_ZN9webserver7epoller14update_channelERNS_7channelE;_ZN9webserver7epoller14update_channelEiRNS_7channelE 10101010
echo_server;[libstdc++.so.6.0.30];_ZNSt6thread11_State_implINS_8_InvokerISt5tupleIJZN9webserver16eventloop_threadC4ESt8functionIFvvEERKNSt7__cxx1112basic_stringIcSt11char_traitsIcESaIcEEEEUlvE_EEEEE6_M_runEv;_ZNSt6thread8_InvokerISt5tupleIJZN9webserver16eventloop_threadC4ESt8functionIFvvEERKNSt7__cxx1112basic_stringIcSt11char_traitsIcESaIcEEEEUlvE_EEEclEv;_ZNSt6thread8_InvokerISt5tupleIJZN9webserver16eventloop_threadC4ESt8functionIFvvEERKNSt7__cxx1112basic_stringIcSt11char_traitsIcESaIcEEEEUlvE_EEE9_M_invokeIJLm0EEEEvSt12_Index_tupleIJXspT_EEE;_ZSt8__invokeIZN9webserver16eventloop_threadC4ESt8functionIFvvEERKNSt7__cxx1112basic_stringIcSt11char_traitsIcESaIcEEEEUlvE_JEENSt15__invoke_resultIT_JDpT0_EE4typeEOSF_DpOSG_;_ZSt13__invoke_implIvZN9webserver16eventloop_threadC4ESt8functionIFvvEERKNSt7__cxx1112basic_stringIcSt11char_traitsIcESaIcEEEEUlvE_JEET_St14__invoke_otherOT0_DpOT1_;_ZZN9webserver16eventloop_threadC4ESt8functionIFvvEERKNSt7__cxx1112basic_stringIcSt11char_traitsIcESaIcEEEENKUlvE_clEv;_ZN9webserver9eventloop4loopEv;_ZN9webserver9eventloop21run_pending_callbacksEv;_ZNKSt8functionIFvvEEclEv;_ZNSt17_Function_handlerIFvvEZN9webserver9eventloop14add_connectionESt10shared_ptrINS1_14tcp_connectionEEEUlvE_E9_M_invokeERKSt9_Any_data;_ZSt10__invoke_rIvRZN9webserver9eventloop14add_connectionESt10shared_ptrINS0_14tcp_connectionEEEUlvE_JEENSt9enable_ifIX16is_invocable_r_vIT_T0_DpT1_EES8_E4typeEOS9_DpOSA_;_ZSt13__invoke_implIvRZN9webserver9eventloop14add_connectionESt10shared_ptrINS0_14tcp_connectionEEEUlvE_JEET_St14__invoke_otherOT0_DpOT1_;_ZZN9webserver9eventloop14add_connectionESt10shared_ptrINS_14tcp_connectionEEENKUlvE_clEv;_ZN9webserver14tcp_connection20establish_connectionEv;_ZN9webserver7channel14enable_readingEv;_ZN9webserver7channel6updateEv;_ZN9webserver7epoller14update_channelERNS_7channelE;_ZNSt13unordered_mapIiPN9webserver7channelESt4hashIiESt8equal_toIiESaISt4pairIKiS2_EEEixEOi;_ZNSt8__detail9_Map_baseIiSt4pairIKiPN9webserver7channelEESaIS6_ENS_10_Select1stESt8equal_toIiESt4hashIiENS_18_Mod_range_hashingENS_20_Default_ranged_hashENS_20_Prime_rehash_policyENS_17_Hashtable_traitsILb0ELb0ELb1EEELb1EEixEOi;_ZNSt10_HashtableIiSt4pairIKiPN9webserver7channelEESaIS5_ENSt8__detail10_Select1stESt8equal_toIiESt4hashIiENS7_18_Mod_range_hashingENS7_20_Default_ranged_hashENS7_20_Prime_rehash_policyENS7_17_Hashtable_traitsILb0ELb0ELb1EEEE12_Scoped_nodeC2IJRKSt21piecewise_construct_tSt5tupleIJOiEESO_IJEEEEEPNS7_16_Hashtable_allocISaINS7_10_Hash_nodeIS5_Lb0EEEEEEDpOT_;_ZNSt8__detail16_Hashtable_allocISaINS_10_Hash_nodeISt4pairIKiPN9webserver7channelEELb0EEEEE16_M_allocate_nodeIJRKSt21piecewise_construct_tSt5tupleIJOiEESF_IJEEEEEPS8_DpOT_;_ZNSt16allocator_traitsISaINSt8__detail10_Hash_nodeISt4pairIKiPN9webserver7channelEELb0EEEEE9constructIS7_JRKSt21piecewise_construct_tSt5tupleIJOiEESF_IJEEEEEvRS9_PT_DpOT0_;_ZN9__gnu_cxx13new_allocatorINSt8__detail10_Hash_nodeISt4pairIKiPN9webserver7channelEELb0EEEE9constructIS8_JRKSt21piecewise_construct_tSt5tupleIJOiEESF_IJEEEEEvPT_DpOT0_;_ZNSt4pairIKiPN9webserver7channelEEC1IJOiEJEEESt21piecewise_construct_tSt5tupleIJDpT_EES8_IJDpT0_EE;_ZNSt4pairIKiPN9webserver7channelEEC1IJOiEJLm0EEJEJEEERSt5tupleIJDpT_EERS7_IJDpT1_EESt12_Index_tupleIJXspT0_EEESG_IJXspT2_EEE;_ZSt3getILm0EJOiEERNSt13tuple_elementIXT_ESt5tupleIJDpT0_EEE4typeERS5_;_ZSt12__get_helperILm0EOiJEERT0_RSt11_Tuple_implIXT_EJS1_DpT1_EE;_ZNSt11_Tuple_implILm0EJOiEE7_M_headERS1_;_ZNSt10_Head_baseILm0EOiLb0EE7_M_headERS1_ 10101010
echo_server;[libstdc++.so.6.0.30];_ZNSt6thread11_State_implINS_8_InvokerISt5tupleIJZN9webserver16eventloop_threadC4ESt8functionIFvvEERKNSt7__cxx1112basic_stringIcSt11char_traitsIcESaIcEEEEUlvE_EEEEE6_M_runEv;_ZNSt6thread8_InvokerISt5tupleIJZN9webserver16eventloop_threadC4ESt8functionIFvvEERKNSt7__cxx1112basic_stringIcSt11char_traitsIcESaIcEEEEUlvE_EEEclEv;_ZNSt6thread8_InvokerISt5tupleIJZN9webserver16eventloop_threadC4ESt8functionIFvvEERKNSt7__cxx1112basic_stringIcSt11char_traitsIcESaIcEEEEUlvE_EEE9_M_invokeIJLm0EEEEvSt12_Index_tupleIJXspT_EEE;_ZSt8__invokeIZN9webserver16eventloop_threadC4ESt8functionIFvvEERKNSt7__cxx1112basic_stringIcSt11char_traitsIcESaIcEEEEUlvE_JEENSt15__invoke_resultIT_JDpT0_EE4typeEOSF_DpOSG_;_ZSt13__invoke_implIvZN9webserver16eventloop_threadC4ESt8functionIFvvEERKNSt7__cxx1112basic_stringIcSt11char_traitsIcESaIcEEEEUlvE_JEET_St14__invoke_otherOT0_DpOT1_;_ZZN9webserver16eventloop_threadC4ESt8functionIFvvEERKNSt7__cxx1112basic_stringIcSt11char_traitsIcESaIcEEEENKUlvE_clEv;_ZN9webserver9eventloop4loopEv;_ZN9webserver9eventloop21run_pending_callbacksEv;_ZNKSt8functionIFvvEEclEv;_ZNSt17_Function_handlerIFvvEZN9webserver9eventloop14add_connectionESt10shared_ptrINS1_14tcp_connectionEEEUlvE_E9_M_invokeERKSt9_Any_data;_ZSt10__invoke_rIvRZN9webserver9eventloop14add_connectionESt10shared_ptrINS0_14tcp_connectionEEEUlvE_JEENSt9enable_ifIX16is_invocable_r_vIT_T0_DpT1_EES8_E4typeEOS9_DpOSA_;_ZSt13__invoke_implIvRZN9webserver9eventloop14add_connectionESt10shared_ptrINS0_14tcp_connectionEEEUlvE_JEET_St14__invoke_otherOT0_DpOT1_;_ZZN9webserver9eventloop14add_connectionESt10shared_ptrINS_14tcp_connectionEEENKUlvE_clEv;_ZN9webserver14tcp_connection20establish_connectionEv;_ZNSt10shared_ptrIvEC2IN9webserver14tcp_connectionEvEERKS_IT_E;_ZNSt12__shared_ptrIvLN9__gnu_cxx12_Lock_policyE2EEC1IN9webserver14tcp_connectionEvEERKS_IT_LS1_2EE;_ZNSt16_Sp_counted_baseILN9__gnu_cxx12_Lock_policyE2EE15_M_add_ref_copyEv 10101010
echo_server;[libstdc++.so.6.0.30];_ZNSt6thread11_State_implINS_8_InvokerISt5tupleIJZN9webserver16eventloop_threadC4ESt8functionIFvvEERKNSt7__cxx1112basic_stringIcSt11char_traitsIcESaIcEEEEUlvE_EEEEE6_M_runEv;_ZNSt6thread8_InvokerISt5tupleIJZN9webserver16eventloop_threadC4ESt8functionIFvvEERKNSt7__cxx1112basic_stringIcSt11char_traitsIcESaIcEEEEUlvE_EEEclEv;_ZNSt6thread8_InvokerISt5tupleIJZN9webserver16eventloop_threadC4ESt8functionIFvvEERKNSt7__cxx1112basic_stringIcSt11char_traitsIcESaIcEEEEUlvE_EEE9_M_invokeIJLm0EEEEvSt12_Index_tupleIJXspT_EEE;_ZSt8__invokeIZN9webserver16eventloop_threadC4ESt8functionIFvvEERKNSt7__cxx1112basic_stringIcSt11char_traitsIcESaIcEEEEUlvE_JEENSt15__invoke_resultIT_JDpT0_EE4typeEOSF_DpOSG_;_ZSt13__invoke_implIvZN9webserver16eventloop_threadC4ESt8functionIFvvEERKNSt7__cxx1112basic_stringIcSt11char_traitsIcESaIcEEEEUlvE_JEET_St14__invoke_otherOT0_DpOT1_;_ZZN9webserver16eventloop_threadC4ESt8functionIFvvEERKNSt7__cxx1112basic_stringIcSt11char_traitsIcESaIcEEEENKUlvE_clEv;_ZN9webserver9eventloop4loopEv;_ZN9webserver9eventloop21run_pending_callbacksEv;_ZNKSt8functionIFvvEEclEv;_ZNSt17_Function_handlerIFvvEZN9webserver9eventloop14add_connectionESt10shared_ptrINS1_14tcp_connectionEEEUlvE_E9_M_invokeERKSt9_Any_data;_ZSt10__invoke_rIvRZN9webserver9eventloop14add_connectionESt10shared_ptrINS0_14tcp_connectionEEEUlvE_JEENSt9enable_ifIX16is_invocable_r_vIT_T0_DpT1_EES8_E4typeEOS9_DpOSA_;_ZSt13__invoke_implIvRZN9webserver9eventloop14add_connectionESt10shared_ptrINS0_14tcp_connectionEEEUlvE_JEET_St14__invoke_otherOT0_DpOT1_;_ZZN9webserver9eventloop14add_connectionESt10shared_ptrINS_14tcp_connectionEEENKUlvE_clEv;_ZN9webserver14tcp_connection20establish_connectionEv;_ZNSt23enable_shared_from_thisIN9webserver14tcp_connectionEE16shared_from_thisEv;_ZNSt10shared_ptrIN9webserver14tcp_connectionEEC2IS1_vEERKSt8weak_ptrIT_E;_ZNSt12__shared_ptrIN9webserver14tcp_connectionELN9__gnu_cxx12_Lock_policyE2EEC1IS1_vEERKSt10__weak_ptrIT_LS3_2EE;_ZNSt14__shared_countILN9__gnu_cxx12_Lock_policyE2EEC1ERKSt12__weak_countILS1_2EE;_ZNSt16_Sp_counted_baseILN9__gnu_cxx12_Lock_policyE2EE23_M_add_ref_lock_nothrowEv 10101010
echo_server;[libstdc++.so.6.0.30];_ZNSt6thread11_State_implINS_8_InvokerISt5tupleIJZN9webserver16eventloop_threadC4ESt8functionIFvvEERKNSt7__cxx1112basic_stringIcSt11char_traitsIcESaIcEEEEUlvE_EEEEE6_M_runEv;_ZNSt6thread8_InvokerISt5tupleIJZN9webserver16eventloop_threadC4ESt8functionIFvvEERKNSt7__cxx1112basic_stringIcSt11char_traitsIcESaIcEEEEUlvE_EEEclEv;_ZNSt6thread8_InvokerISt5tupleIJZN9webserver16eventloop_threadC4ESt8functionIFvvEERKNSt7__cxx1112basic_stringIcSt11char_traitsIcESaIcEEEEUlvE_EEE9_M_invokeIJLm0EEEEvSt12_Index_tupleIJXspT_EEE;_ZSt8__invokeIZN9webserver16eventloop_threadC4ESt8functionIFvvEERKNSt7__cxx1112basic_stringIcSt11char_traitsIcESaIcEEEEUlvE_JEENSt15__invoke_resultIT_JDpT0_EE4typeEOSF_DpOSG_;_ZSt13__invoke_implIvZN9webserver16eventloop_threadC4ESt8functionIFvvEERKNSt7__cxx1112basic_stringIcSt11char_traitsIcESaIcEEEEUlvE_JEET_St14__invoke_otherOT0_DpOT1_;_ZZN9webserver16eventloop_threadC4ESt8functionIFvvEERKNSt7__cxx1112basic_stringIcSt11char_traitsIcESaIcEEEENKUlvE_clEv;_ZN9webserver9eventloop4loopEv;_ZN9webserver9eventloop21run_pending_callbacksEv;_ZNKSt8functionIFvvEEclEv;_ZNSt17_Function_handlerIFvvEZN9webserver9eventloop14add_connectionESt10shared_ptrINS1_14tcp_connectionEEEUlvE_E9_M_invokeERKSt9_Any_data;_ZSt10__invoke_rIvRZN9webserver9eventloop14add_connectionESt10shared_ptrINS0_14tcp_connectionEEEUlvE_JEENSt9enable_ifIX16is_invocable_r_vIT_T0_DpT1_EES8_E4typeEOS9_DpOSA_;_ZSt13__invoke_implIvRZN9webserver9eventloop14add_connectionESt10shared_ptrINS0_14tcp_connectionEEEUlvE_JEET_St14__invoke_otherOT0_DpOT1_;_ZZN9webserver9eventloop14add_connectionESt10shared_ptrINS_14tcp_connectionEEENKUlvE_clEv;_ZNSt13unordered_mapImSt10shared_ptrIN9webserver14tcp_connectionEESt4hashImESt8equal_toImESaISt4pairIKmS3_EEE7emplaceIJRS9_KS3_EEES8_INSt8__detail14_Node_iteratorISA_Lb0ELb0EEEbEDpOT_;_ZNSt10_HashtableImSt4pairIKmSt10shared_ptrIN9webserver14tcp_connectionEEESaIS6_ENSt8__detail10_Select1stESt8equal_toImESt4hashImENS8_18_Mod_range_hashingENS8_20_Default_ranged_hashENS8_20_Prime_rehash_policyENS8_17_Hashtable_traitsILb0ELb0ELb1EEEE7emplaceIJRS1_KS5_EEES0_INS8_14_Node_iteratorIS6_Lb0ELb0EEEbEDpOT_;_ZNSt10_HashtableImSt4pairIKmSt10shared_ptrIN9webserver14tcp_connectionEEESaIS6_ENSt8__detail10_Select1stESt8equal_toImESt4hashImENS8_18_Mod_range_hashingENS8_20_Default_ranged_hashENS8_20_Prime_rehash_policyENS8_17_Hashtable_traitsILb0ELb0ELb1EEEE10_M_emplaceIJRS1_KS5_EEES0_INS8_14_Node_iteratorIS6_Lb0ELb0EEEbESt17integral_constantIbLb1EEDpOT_;_ZNSt10_HashtableImSt4pairIKmSt10shared_ptrIN9webserver14tcp_connectionEEESaIS6_ENSt8__detail10_Select1stESt8equal_toImESt4hashImENS8_18_Mod_range_hashingENS8_20_Default_ranged_hashENS8_20_Prime_rehash_policyENS8_17_Hashtable_traitsILb0ELb0ELb1EEEE12_Scoped_nodeC1IJRS1_KS5_EEEPNS8_16_Hashtable_allocISaINS8_10_Hash_nodeIS6_Lb0EEEEEEDpOT_;_ZNSt8__detail16_Hashtable_allocISaINS_10_Hash_nodeISt4pairIKmSt10shared_ptrIN9webserver14tcp_connectionEEELb0EEEEE16_M_allocate_nodeIJRS3_KS7_EEEPS9_DpOT_;_ZNSt16allocator_traitsISaINSt8__detail10_Hash_nodeISt4pairIKmSt10shared_ptrIN9webserver14tcp_connectionEEELb0EEEEE9constructIS8_JRS3_KS7_EEEvRSA_PT_DpOT0_ 10101010
echo_server;[libstdc++.so.6.0.30];_ZNSt6thread11_State_implINS_8_InvokerISt5tupleIJZN9webserver16eventloop_threadC4ESt8functionIFvvEERKNSt7__cxx1112basic_stringIcSt11char_traitsIcESaIcEEEEUlvE_EEEEE6_M_runEv;_ZNSt6thread8_InvokerISt5tupleIJZN9webserver16eventloop_threadC4ESt8functionIFvvEERKNSt7__cxx1112basic_stringIcSt11char_traitsIcESaIcEEEEUlvE_EEEclEv;_ZNSt6thread8_InvokerISt5tupleIJZN9webserver16eventloop_threadC4ESt8functionIFvvEERKNSt7__cxx1112basic_stringIcSt11char_traitsIcESaIcEEEEUlvE_EEE9_M_invokeIJLm0EEEEvSt12_Index_tupleIJXspT_EEE;_ZSt8__invokeIZN9webserver16eventloop_threadC4ESt8functionIFvvEERKNSt7__cxx1112basic_stringIcSt11char_traitsIcESaIcEEEEUlvE_JEENSt15__invoke_resultIT_JDpT0_EE4typeEOSF_DpOSG_;_ZSt13__invoke_implIvZN9webserver16eventloop_threadC4ESt8functionIFvvEERKNSt7__cxx1112basic_stringIcSt11char_traitsIcESaIcEEEEUlvE_JEET_St14__invoke_otherOT0_DpOT1_;_ZZN9webserver16eventloop_threadC4ESt8functionIFvvEERKNSt7__cxx1112basic_stringIcSt11char_traitsIcESaIcEEEENKUlvE_clEv;_ZN9webserver9eventloop4loopEv;_ZN9webserver9eventloop21run_pending_callbacksEv;_ZNSt11unique_lockISt5mutexEC1ERS0_;_ZNSt11unique_lockISt5mutexE4lockEv;_ZNSt5mutex4lockEv;pthread_mutex_lock@@GLIBC_2.2.5 10101010
echo_server;[libstdc++.so.6.0.30];_ZNSt6thread11_State_implINS_8_InvokerISt5tupleIJZN9webserver16eventloop_threadC4ESt8functionIFvvEERKNSt7__cxx1112basic_stringIcSt11char_traitsIcESaIcEEEEUlvE_EEEEE6_M_runEv;_ZNSt6thread8_InvokerISt5tupleIJZN9webserver16eventloop_threadC4ESt8functionIFvvEERKNSt7__cxx1112basic_stringIcSt11char_traitsIcESaIcEEEEUlvE_EEEclEv;_ZNSt6thread8_InvokerISt5tupleIJZN9webserver16eventloop_threadC4ESt8functionIFvvEERKNSt7__cxx1112basic_stringIcSt11char_traitsIcESaIcEEEEUlvE_EEE9_M_invokeIJLm0EEEEvSt12_Index_tupleIJXspT_EEE;_ZSt8__invokeIZN9webserver16eventloop_threadC4ESt8functionIFvvEERKNSt7__cxx1112basic_stringIcSt11char_traitsIcESaIcEEEEUlvE_JEENSt15__invoke_resultIT_JDpT0_EE4typeEOSF_DpOSG_;_ZSt13__invoke_implIvZN9webserver16eventloop_threadC4ESt8functionIFvvEERKNSt7__cxx1112basic_stringIcSt11char_traitsIcESaIcEEEEUlvE_JEET_St14__invoke_otherOT0_DpOT1_;_ZZN9webserver16eventloop_threadC4ESt8functionIFvvEERKNSt7__cxx1112basic_stringIcSt11char_traitsIcESaIcEEEENKUlvE_clEv;_ZN9webserver9eventloop4loopEv;_ZN9webserver9eventloop21run_pending_callbacksEv;_ZNSt11unique_lockISt5mutexED2Ev;_ZNSt11unique_lockISt5mutexE6unlockEv;_ZNSt5mutex6unlockEv;pthread_mutex_unlock@@GLIBC_2.2.5 10101010
echo_server;[libstdc++.so.6.0.30];_ZNSt6thread11_State_implINS_8_InvokerISt5tupleIJZN9webserver16eventloop_threadC4ESt8functionIFvvEERKNSt7__cxx1112basic_stringIcSt11char_traitsIcESaIcEEEEUlvE_EEEEE6_M_runEv;_ZNSt6thread8_InvokerISt5tupleIJZN9webserver16eventloop_threadC4ESt8functionIFvvEERKNSt7__cxx1112basic_stringIcSt11char_traitsIcESaIcEEEEUlvE_EEEclEv;_ZNSt6thread8_InvokerISt5tupleIJZN9webserver16eventloop_threadC4ESt8functionIFvvEERKNSt7__cxx1112basic_stringIcSt11char_traitsIcESaIcEEEEUlvE_EEE9_M_invokeIJLm0EEEEvSt12_Index_tupleIJXspT_EEE;_ZSt8__invokeIZN9webserver16eventloop_threadC4ESt8functionIFvvEERKNSt7__cxx1112basic_stringIcSt11char_traitsIcESaIcEEEEUlvE_JEENSt15__invoke_resultIT_JDpT0_EE4typeEOSF_DpOSG_;_ZSt13__invoke_implIvZN9webserver16eventloop_threadC4ESt8functionIFvvEERKNSt7__cxx1112basic_stringIcSt11char_traitsIcESaIcEEEEUlvE_JEET_St14__invoke_otherOT0_DpOT1_;_ZZN9webserver16eventloop_threadC4ESt8functionIFvvEERKNSt7__cxx1112basic_stringIcSt11char_traitsIcESaIcEEEENKUlvE_clEv;_ZN9webserver9eventloop4loopEv;_ZN9webserver9eventloop21run_pending_callbacksEv;_ZNSt6atomicIbEaSEb;_ZNSt13__atomic_baseIbEaSEb;_ZStanSt12memory_orderSt23__memory_order_modifier 10101010
echo_server;[libstdc++.so.6.0.30];_ZNSt6thread11_State_implINS_8_InvokerISt5tupleIJZN9webserver16eventloop_threadC4ESt8functionIFvvEERKNSt7__cxx1112basic_stringIcSt11char_traitsIcESaIcEEEEUlvE_EEEEE6_M_runEv;_ZNSt6thread8_InvokerISt5tupleIJZN9webserver16eventloop_threadC4ESt8functionIFvvEERKNSt7__cxx1112basic_stringIcSt11char_traitsIcESaIcEEEEUlvE_EEEclEv;_ZNSt6thread8_InvokerISt5tupleIJZN9webserver16eventloop_threadC4ESt8functionIFvvEERKNSt7__cxx1112basic_stringIcSt11char_traitsIcESaIcEEEEUlvE_EEE9_M_invokeIJLm0EEEEvSt12_Index_tupleIJXspT_EEE;_ZSt8__invokeIZN9webserver16eventloop_threadC4ESt8functionIFvvEERKNSt7__cxx1112basic_stringIcSt11char_traitsIcESaIcEEEEUlvE_JEENSt15__invoke_resultIT_JDpT0_EE4typeEOSF_DpOSG_;_ZSt13__invoke_implIvZN9webserver16eventloop_threadC4ESt8functionIFvvEERKNSt7__cxx1112basic_stringIcSt11char_traitsIcESaIcEEEEUlvE_JEET_St14__invoke_otherOT0_DpOT1_;_ZZN9webserver16eventloop_threadC4ESt8functionIFvvEERKNSt7__cxx1112basic_stringIcSt11char_traitsIcESaIcEEEENKUlvE_clEv;_ZN9webserver9eventloop4loopEv;_ZN9webserver9eventloop21run_pending_callbacksEv;_ZNSt6vectorISt8functionIFvvEESaIS2_EED2Ev;_ZSt8_DestroyIPSt8functionIFvvEES2_EvT_S4_RSaIT0_E;_ZSt8_DestroyIPSt8functionIFvvEEEvT_S4_;_ZNSt12_Destroy_auxILb0EE9__destroyIPSt8functionIFvvEEEEvT_S6_;_ZSt8_DestroyISt8functionIFvvEEEvPT_;_ZNSt8functionIFvvEED2Ev;_ZNSt14_Function_baseD1Ev;_ZNSt17_Function_handlerIFvvEZN9webserver9eventloop14add_connectionESt10shared_ptrINS1_14tcp_connectionEEEUlvE_E10_M_managerERSt9_Any_dataRKS8_St18_Manager_operation;_ZNSt14_Function_base13_Base_managerIZN9webserver9eventloop14add_connectionESt10shared_ptrINS1_14tcp_connectionEEEUlvE_E10_M_managerERSt9_Any_dataRKS8_St18_Manager_operation;_ZNSt14_Function_base13_Base_managerIZN9webserver9eventloop14add_connectionESt10shared_ptrINS1_14tcp_connectionEEEUlvE_E10_M_destroyERSt9_Any_dataSt17integral_constantIbLb0EE;_ZZN9webserver9eventloop14add_connectionESt10shared_ptrINS_14tcp_connectionEEENUlvE_D2Ev;_ZNSt10shared_ptrIN9webserver14tcp_connectionEED2Ev;_ZNSt12__shared_ptrIN9webserver14tcp_connectionELN9__gnu_cxx12_Lock_policyE2EED1Ev;_ZNSt14__shared_countILN9__gnu_cxx12_Lock_policyE2EED2Ev 10101010
echo_server;[libstdc++.so.6.0.30];_ZNSt6thread11_State_implINS_8_InvokerISt5tupleIJZN9webserver16eventloop_threadC4ESt8functionIFvvEERKNSt7__cxx1112basic_stringIcSt11char_traitsIcESaIcEEEEUlvE_EEEEE6_M_runEv;_ZNSt6thread8_InvokerISt5tupleIJZN9webserver16eventloop_threadC4ESt8functionIFvvEERKNSt7__cxx1112basic_stringIcSt11char_traitsIcESaIcEEEEUlvE_EEEclEv;_ZNSt6thread8_InvokerISt5tupleIJZN9webserver16eventloop_threadC4ESt8functionIFvvEERKNSt7__cxx1112basic_stringIcSt11char_traitsIcESaIcEEEEUlvE_EEE9_M_invokeIJLm0EEEEvSt12_Index_tupleIJXspT_EEE;_ZSt8__invokeIZN9webserver16eventloop_threadC4ESt8functionIFvvEERKNSt7__cxx1112basic_stringIcSt11char_traitsIcESaIcEEEEUlvE_JEENSt15__invoke_resultIT_JDpT0_EE4typeEOSF_DpOSG_;_ZSt13__invoke_implIvZN9webserver16eventloop_threadC4ESt8functionIFvvEERKNSt7__cxx1112basic_stringIcSt11char_traitsIcESaIcEEEEUlvE_JEET_St14__invoke_otherOT0_DpOT1_;_ZZN9webserver16eventloop_threadC4ESt8functionIFvvEERKNSt7__cxx1112basic_stringIcSt11char_traitsIcESaIcEEEENKUlvE_clEv;_ZN9webserver9eventloop4loopEv;_ZN9webserver9eventloop21run_pending_callbacksEv;_ZNSt8functionIFvvEED2Ev;_ZNSt14_Function_baseD1Ev;_ZNSt17_Function_handlerIFvvEZN9webserver9eventloop14add_connectionESt10shared_ptrINS1_14tcp_connectionEEEUlvE_E10_M_managerERSt9_Any_dataRKS8_St18_Manager_operation;_ZNSt14_Function_base13_Base_managerIZN9webserver9eventloop14add_connectionESt10shared_ptrINS1_14tcp_connectionEEEUlvE_E10_M_managerERSt9_Any_dataRKS8_St18_Manager_operation;_ZNSt14_Function_base13_Base_managerIZN9webserver9eventloop14add_connectionESt10shared_ptrINS1_14tcp_connectionEEEUlvE_E10_M_destroyERSt9_Any_dataSt17integral_constantIbLb0EE;_ZNSt10shared_ptrIN9webserver14tcp_connectionEED2Ev 10101010
echo_server;[libstdc++.so.6.0.30];_ZNSt6thread11_State_implINS_8_InvokerISt5tupleIJZN9webserver16eventloop_threadC4ESt8functionIFvvEERKNSt7__cxx1112basic_stringIcSt11char_traitsIcESaIcEEEEUlvE_EEEEE6_M_runEv;_ZNSt6thread8_InvokerISt5tupleIJZN9webserver16eventloop_threadC4ESt8functionIFvvEERKNSt7__cxx1112basic_stringIcSt11char_traitsIcESaIcEEEEUlvE_EEEclEv;_ZNSt6thread8_InvokerISt5tupleIJZN9webserver16eventloop_threadC4ESt8functionIFvvEERKNSt7__cxx1112basic_stringIcSt11char_traitsIcESaIcEEEEUlvE_EEE9_M_invokeIJLm0EEEEvSt12_Index_tupleIJXspT_EEE;_ZSt8__invokeIZN9webserver16eventloop_threadC4ESt8functionIFvvEERKNSt7__cxx1112basic_stringIcSt11char_traitsIcESaIcEEEEUlvE_JEENSt15__invoke_resultIT_JDpT0_EE4typeEOSF_DpOSG_;_ZSt13__invoke_implIvZN9webserver16eventloop_threadC4ESt8functionIFvvEERKNSt7__cxx1112basic_stringIcSt11char_traitsIcESaIcEEEEUlvE_JEET_St14__invoke_otherOT0_DpOT1_;_ZZN9webserver16eventloop_threadC4ESt8functionIFvvEERKNSt7__cxx1112basic_stringIcSt11char_traitsIcESaIcEEEENKUlvE_clEv;_ZN9webserver9eventloop4loopEv;_ZNSt6atomicIbEaSEb;_ZNSt13__atomic_baseIbEaSEb 10101010
echo_server;[unknown];_int_free 20202020
echo_server;__libc_start_call_main;main;_ZN11echo_server5startEv;_ZN9webserver10tcp_server5startEv;_ZN9webserver7epoller4pollEiRSt6vectorIPNS_7channelESaIS3_EE 10101010
echo_server;__libc_start_call_main;main;_ZN11echo_server5startEv;_ZN9webserver10tcp_server5startEv;_ZN9webserver9eventloop4loopEv;_ZN9webserver7channel12handle_eventENS_9timestampE;_ZN9webserver7channel23handle_event_with_guardENS_9timestampE;_ZN9webserver10event_util18has_readable_eventEi 10101010
echo_server;__libc_start_call_main;main;_ZN11echo_server5startEv;_ZN9webserver10tcp_server5startEv;_ZN9webserver9eventloop4loopEv;_ZN9webserver7channel12handle_eventENS_9timestampE;_ZN9webserver7channel23handle_event_with_guardENS_9timestampE;_ZN9webserver6logger5debugIJRKiEEEvSt17basic_string_viewIcSt11char_traitsIcEEDpOT_ 10101010
echo_server;__libc_start_call_main;main;_ZN11echo_server5startEv;_ZN9webserver10tcp_server5startEv;_ZN9webserver9eventloop4loopEv;_ZN9webserver7channel12handle_eventENS_9timestampE;_ZN9webserver7channel23handle_event_with_guardENS_9timestampE;_ZNKSt8functionIFvN9webserver9timestampEEEclES1_;_ZNSt17_Function_handlerIFvN9webserver9timestampEEZNS0_8acceptor6listenEmEUlS1_E_E9_M_invokeERKSt9_Any_dataOS1_;_ZSt10__invoke_rIvRZN9webserver8acceptor6listenEmEUlNS0_9timestampEE_JS2_EENSt9enable_ifIX16is_invocable_r_vIT_T0_DpT1_EES6_E4typeEOS7_DpOS8_;_ZSt13__invoke_implIvRZN9webserver8acceptor6listenEmEUlNS0_9timestampEE_JS2_EET_St14__invoke_otherOT0_DpOT1_;_ZNSt10shared_ptrIN9webserver14tcp_connectionEEC1EOS2_ 10101010
echo_server;__libc_start_call_main;main;_ZN11echo_server5startEv;_ZN9webserver10tcp_server5startEv;_ZN9webserver9eventloop4loopEv;_ZN9webserver7channel12handle_eventENS_9timestampE;_ZN9webserver7channel23handle_event_with_guardENS_9timestampE;_ZNKSt8functionIFvN9webserver9timestampEEEclES1_;_ZNSt17_Function_handlerIFvN9webserver9timestampEEZNS0_8acceptor6listenEmEUlS1_E_E9_M_invokeERKSt9_Any_dataOS1_;_ZSt10__invoke_rIvRZN9webserver8acceptor6listenEmEUlNS0_9timestampEE_JS2_EENSt9enable_ifIX16is_invocable_r_vIT_T0_DpT1_EES6_E4typeEOS7_DpOS8_;_ZSt13__invoke_implIvRZN9webserver8acceptor6listenEmEUlNS0_9timestampEE_JS2_EET_St14__invoke_otherOT0_DpOT1_;_ZZN9webserver8acceptor6listenEmENKUlNS_9timestampEE_clES1_;[echo_server] 10101010
echo_server;__libc_start_call_main;main;_ZN11echo_server5startEv;_ZN9webserver10tcp_server5startEv;_ZN9webserver9eventloop4loopEv;_ZN9webserver7channel12handle_eventENS_9timestampE;_ZN9webserver7channel23handle_event_with_guardENS_9timestampE;_ZNKSt8functionIFvN9webserver9timestampEEEclES1_;_ZNSt17_Function_handlerIFvN9webserver9timestampEEZNS0_8acceptor6listenEmEUlS1_E_E9_M_invokeERKSt9_Any_dataOS1_;_ZSt10__invoke_rIvRZN9webserver8acceptor6listenEmEUlNS0_9timestampEE_JS2_EENSt9enable_ifIX16is_invocable_r_vIT_T0_DpT1_EES6_E4typeEOS7_DpOS8_;_ZSt13__invoke_implIvRZN9webserver8acceptor6listenEmEUlNS0_9timestampEE_JS2_EET_St14__invoke_otherOT0_DpOT1_;_ZZN9webserver8acceptor6listenEmENKUlNS_9timestampEE_clES1_;_ZN9webserver14tcp_connection20set_connect_callbackESt8functionIFvRKSt10shared_ptrIS0_EEE;_ZNSt8functionIFvRKSt10shared_ptrIN9webserver14tcp_connectionEEEEaSERKS7_;_ZNSt8functionIFvRKSt10shared_ptrIN9webserver14tcp_connectionEEEEC2ERKS7_;_ZNSt17_Function_handlerIFvRKSt10shared_ptrIN9webserver14tcp_connectionEEEZN11echo_serverC4ERKNS1_12inet_addressERKNSt7__cxx1112basic_stringIcSt11char_traitsIcESaIcEEEEUlS5_E_E10_M_managerERSt9_Any_dataRKSL_St18_Manager_operation;_ZNSt14_Function_base13_Base_managerIZN11echo_serverC4ERKN9webserver12inet_addressERKNSt7__cxx1112basic_stringIcSt11char_traitsIcESaIcEEEEUlRKSt10shared_ptrINS2_14tcp_connectionEEE_E10_M_managerERSt9_Any_dataRKSL_St18_Manager_operation;_ZNSt14_Function_base13_Base_managerIZN11echo_serverC4ERKN9webserver12inet_addressERKNSt7__cxx1112basic_stringIcSt11char_traitsIcESaIcEEEEUlRKSt10shared_ptrINS2_14tcp_connectionEEE_E15_M_init_functorIRKSJ_EEvRSt9_Any_dataOT_;_ZNSt14_Function_base13_Base_managerIZN11echo_serverC4ERKN9webserver12inet_addressERKNSt7__cxx1112basic_stringIcSt11char_traitsIcESaIcEEEEUlRKSt10shared_ptrINS2_14tcp_connectionEEE_E9_M_createIRKSJ_EEvRSt9_Any_dataOT_St17integral_constantIbLb1EE;_ZnwmPv 10101010
echo_server;__libc_start_call_main;main;_ZN11echo_server5startEv;_ZN9webserver10tcp_server5startEv;_ZN9webserver9eventloop4loopEv;_ZN9webserver7channel12handle_eventENS_9timestampE;_ZN9webserver7channel23handle_event_with_guardENS_9timestampE;_ZNKSt8functionIFvN9webserver9timestampEEEclES1_;_ZNSt17_Function_handlerIFvN9webserver9timestampEEZNS0_8acceptor6listenEmEUlS1_E_E9_M_invokeERKSt9_Any_dataOS1_;_ZSt10__invoke_rIvRZN9webserver8acceptor6listenEmEUlNS0_9timestampEE_JS2_EENSt9enable_ifIX16is_invocable_r_vIT_T0_DpT1_EES6_E4typeEOS7_DpOS8_;_ZSt13__invoke_implIvRZN9webserver8acceptor6listenEmEUlNS0_9timestampEE_JS2_EET_St14__invoke_otherOT0_DpOT1_;_ZZN9webserver8acceptor6listenEmENKUlNS_9timestampEE_clES1_;_ZN9webserver14tcp_connection20set_message_callbackESt8functionIFvRKSt10shared_ptrIS0_EPNS_6bufferENS_9timestampEEE;_ZNSt8functionIFvRKSt10shared_ptrIN9webserver14tcp_connectionEEPNS1_6bufferENS1_9timestampEEEaSERKSA_ 10101010
echo_server;__libc_start_call_main;main;_ZN11echo_server5startEv;_ZN9webserver10tcp_server5startEv;_ZN9webserver9eventloop4loopEv;_ZN9webserver7channel12handle_eventENS_9timestampE;_ZN9webserver7channel23handle_event_with_guardENS_9timestampE;_ZNKSt8functionIFvN9webserver9timestampEEEclES1_;_ZNSt17_Function_handlerIFvN9webserver9timestampEEZNS0_8acceptor6listenEmEUlS1_E_E9_M_invokeERKSt9_Any_dataOS1_;_ZSt10__invoke_rIvRZN9webserver8acceptor6listenEmEUlNS0_9timestampEE_JS2_EENSt9enable_ifIX16is_invocable_r_vIT_T0_DpT1_EES6_E4typeEOS7_DpOS8_;_ZSt13__invoke_implIvRZN9webserver8acceptor6listenEmEUlNS0_9timestampEE_JS2_EET_St14__invoke_otherOT0_DpOT1_;_ZZN9webserver8acceptor6listenEmENKUlNS_9timestampEE_clES1_;_ZN9webserver14tcp_connection27set_write_complete_callbackESt8functionIFvRKSt10shared_ptrIS0_EEE;_ZNSt8functionIFvRKSt10shared_ptrIN9webserver14tcp_connectionEEEEC2ERKS7_ 10101010
echo_server;__libc_start_call_main;main;_ZN11echo_server5startEv;_ZN9webserver10tcp_server5startEv;_ZN9webserver9eventloop4loopEv;_ZN9webserver7channel12handle_eventENS_9timestampE;_ZN9webserver7channel23handle_event_with_guardENS_9timestampE;_ZNKSt8functionIFvN9webserver9timestampEEEclES1_;_ZNSt17_Function_handlerIFvN9webserver9timestampEEZNS0_8acceptor6listenEmEUlS1_E_E9_M_invokeERKSt9_Any_dataOS1_;_ZSt10__invoke_rIvRZN9webserver8acceptor6listenEmEUlNS0_9timestampEE_JS2_EENSt9enable_ifIX16is_invocable_r_vIT_T0_DpT1_EES6_E4typeEOS7_DpOS8_;_ZSt13__invoke_implIvRZN9webserver8acceptor6listenEmEUlNS0_9timestampEE_JS2_EET_St14__invoke_otherOT0_DpOT1_;_ZZN9webserver8acceptor6listenEmENKUlNS_9timestampEE_clES1_;_ZN9webserver21eventloop_thread_pool18get_next_eventloopEv 10101010
echo_server;__libc_start_call_main;main;_ZN11echo_server5startEv;_ZN9webserver10tcp_server5startEv;_ZN9webserver9eventloop4loopEv;_ZN9webserver7channel12handle_eventENS_9timestampE;_ZN9webserver7channel23handle_event_with_guardENS_9timestampE;_ZNKSt8functionIFvN9webserver9timestampEEEclES1_;_ZNSt17_Function_handlerIFvN9webserver9timestampEEZNS0_8acceptor6listenEmEUlS1_E_E9_M_invokeERKSt9_Any_dataOS1_;_ZSt10__invoke_rIvRZN9webserver8acceptor6listenEmEUlNS0_9timestampEE_JS2_EENSt9enable_ifIX16is_invocable_r_vIT_T0_DpT1_EES6_E4typeEOS7_DpOS8_;_ZSt13__invoke_implIvRZN9webserver8acceptor6listenEmEUlNS0_9timestampEE_JS2_EET_St14__invoke_otherOT0_DpOT1_;_ZZN9webserver8acceptor6listenEmENKUlNS_9timestampEE_clES1_;_ZN9webserver21eventloop_thread_pool18get_next_eventloopEv;_ZNKSt6vectorISt10unique_ptrIN9webserver16eventloop_threadESt14default_deleteIS2_EESaIS5_EE5emptyEv;_ZNKSt6vectorISt10unique_ptrIN9webserver16eventloop_threadESt14default_deleteIS2_EESaIS5_EE3endEv;_ZN9__gnu_cxx17__normal_iteratorIPKSt10unique_ptrIN9webserver16eventloop_threadESt14default_deleteIS3_EESt6vectorIS6_SaIS6_EEEC2ERKS8_ 10101010
echo_server;__libc_start_call_main;main;_ZN11echo_server5startEv;_ZN9webserver10tcp_server5startEv;_ZN9webserver9eventloop4loopEv;_ZN9webserver7channel12handle_eventENS_9timestampE;_ZN9webserver7channel23handle_event_with_guardENS_9timestampE;_ZNKSt8functionIFvN9webserver9timestampEEEclES1_;_ZNSt17_Function_handlerIFvN9webserver9timestampEEZNS0_8acceptor6listenEmEUlS1_E_E9_M_invokeERKSt9_Any_dataOS1_;_ZSt10__invoke_rIvRZN9webserver8acceptor6listenEmEUlNS0_9timestampEE_JS2_EENSt9enable_ifIX16is_invocable_r_vIT_T0_DpT1_EES6_E4typeEOS7_DpOS8_;_ZSt13__invoke_implIvRZN9webserver8acceptor6listenEmEUlNS0_9timestampEE_JS2_EET_St14__invoke_otherOT0_DpOT1_;_ZZN9webserver8acceptor6listenEmENKUlNS_9timestampEE_clES1_;_ZN9webserver9eventloop14add_connectionESt10shared_ptrINS_14tcp_connectionEE;_ZN9webserver9eventloop11run_in_loopESt8functionIFvvEE;_ZN9webserver9eventloop13queue_in_loopESt8functionIFvvEE;_ZNKSt6atomicIbEcvbEv 10101010
echo_server;__libc_start_call_main;main;_ZN11echo_server5startEv;_ZN9webserver10tcp_server5startEv;_ZN9webserver9eventloop4loopEv;_ZN9webserver7channel12handle_eventENS_9timestampE;_ZN9webserver7channel23handle_event_with_guardENS_9timestampE;_ZNKSt8functionIFvN9webserver9timestampEEEclES1_;_ZNSt17_Function_handlerIFvN9webserver9timestampEEZNS0_8acceptor6listenEmEUlS1_E_E9_M_invokeERKSt9_Any_dataOS1_;_ZSt10__invoke_rIvRZN9webserver8acceptor6listenEmEUlNS0_9timestampEE_JS2_EENSt9enable_ifIX16is_invocable_r_vIT_T0_DpT1_EES6_E4typeEOS7_DpOS8_;_ZSt13__invoke_implIvRZN9webserver8acceptor6listenEmEUlNS0_9timestampEE_JS2_EET_St14__invoke_otherOT0_DpOT1_;_ZZN9webserver8acceptor6listenEmENKUlNS_9timestampEE_clES1_;_ZN9webserver9eventloop14add_connectionESt10shared_ptrINS_14tcp_connectionEE;_ZN9webserver9eventloop11run_in_loopESt8functionIFvvEE;_ZN9webserver9eventloop13queue_in_loopESt8functionIFvvEE;_ZNSt11unique_lockISt5mutexED2Ev;_ZNSt11unique_lockISt5mutexE6unlockEv;_ZNSt5mutex6unlockEv;pthread_mutex_unlock@@GLIBC_2.2.5 20202020
echo_server;__libc_start_call_main;main;_ZN11echo_server5startEv;_ZN9webserver10tcp_server5startEv;_ZN9webserver9eventloop4loopEv;_ZN9webserver7channel12handle_eventENS_9timestampE;_ZN9webserver7channel23handle_event_with_guardENS_9timestampE;_ZNKSt8functionIFvN9webserver9timestampEEEclES1_;_ZNSt17_Function_handlerIFvN9webserver9timestampEEZNS0_8acceptor6listenEmEUlS1_E_E9_M_invokeERKSt9_Any_dataOS1_;_ZSt10__invoke_rIvRZN9webserver8acceptor6listenEmEUlNS0_9timestampEE_JS2_EENSt9enable_ifIX16is_invocable_r_vIT_T0_DpT1_EES6_E4typeEOS7_DpOS8_;_ZSt13__invoke_implIvRZN9webserver8acceptor6listenEmEUlNS0_9timestampEE_JS2_EET_St14__invoke_otherOT0_DpOT1_;_ZZN9webserver8acceptor6listenEmENKUlNS_9timestampEE_clES1_;_ZN9webserver9eventloop14add_connectionESt10shared_ptrINS_14tcp_connectionEE;_ZNSt8functionIFvvEEC1IZN9webserver9eventloop14add_connectionESt10shared_ptrINS3_14tcp_connectionEEEUlvE_vEEOT_;_ZNSt14_Function_base13_Base_managerIZN9webserver9eventloop14add_connectionESt10shared_ptrINS1_14tcp_connectionEEEUlvE_E9_M_createIS6_EEvRSt9_Any_dataOT_St17integral_constantIbLb0EE 10101010
echo_server;__libc_start_call_main;main;_ZN11echo_server5startEv;_ZN9webserver10tcp_server5startEv;_ZN9webserver9eventloop4loopEv;_ZN9webserver7channel12handle_eventENS_9timestampE;_ZN9webserver7channel23handle_event_with_guardENS_9timestampE;_ZNKSt8functionIFvN9webserver9timestampEEEclES1_;_ZNSt17_Function_handlerIFvN9webserver9timestampEEZNS0_8acceptor6listenEmEUlS1_E_E9_M_invokeERKSt9_Any_dataOS1_;_ZSt10__invoke_rIvRZN9webserver8acceptor6listenEmEUlNS0_9timestampEE_JS2_EENSt9enable_ifIX16is_invocable_r_vIT_T0_DpT1_EES6_E4typeEOS7_DpOS8_;_ZSt13__invoke_implIvRZN9webserver8acceptor6listenEmEUlNS0_9timestampEE_JS2_EET_St14__invoke_otherOT0_DpOT1_;_ZZN9webserver8acceptor6listenEmENKUlNS_9timestampEE_clES1_;_ZN9webserver9eventloop14add_connectionESt10shared_ptrINS_14tcp_connectionEE;_ZNSt8functionIFvvEED2Ev;_ZNSt14_Function_baseD1Ev;_ZNSt17_Function_handlerIFvvEZN9webserver9eventloop14add_connectionESt10shared_ptrINS1_14tcp_connectionEEEUlvE_E10_M_managerERSt9_Any_dataRKS8_St18_Manager_operation;_ZNSt14_Function_base13_Base_managerIZN9webserver9eventloop14add_connectionESt10shared_ptrINS1_14tcp_connectionEEEUlvE_E10_M_managerERSt9_Any_dataRKS8_St18_Manager_operation;[libstdc++.so.6.0.30] 10101010
echo_server;__libc_start_call_main;main;_ZN11echo_server5startEv;_ZN9webserver10tcp_server5startEv;_ZN9webserver9eventloop4loopEv;_ZN9webserver7channel12handle_eventENS_9timestampE;_ZN9webserver7channel23handle_event_with_guardENS_9timestampE;_ZNKSt8functionIFvN9webserver9timestampEEEclES1_;_ZNSt17_Function_handlerIFvN9webserver9timestampEEZNS0_8acceptor6listenEmEUlS1_E_E9_M_invokeERKSt9_Any_dataOS1_;_ZSt10__invoke_rIvRZN9webserver8acceptor6listenEmEUlNS0_9timestampEE_JS2_EENSt9enable_ifIX16is_invocable_r_vIT_T0_DpT1_EES6_E4typeEOS7_DpOS8_;_ZSt13__invoke_implIvRZN9webserver8acceptor6listenEmEUlNS0_9timestampEE_JS2_EET_St14__invoke_otherOT0_DpOT1_;_ZZN9webserver8acceptor6listenEmENKUlNS_9timestampEE_clES1_;_ZN9webserver9eventloop14add_connectionESt10shared_ptrINS_14tcp_connectionEE;_ZNSt8functionIFvvEED2Ev;_ZNSt14_Function_baseD1Ev;_ZNSt17_Function_handlerIFvvEZN9webserver9eventloop14add_connectionESt10shared_ptrINS1_14tcp_connectionEEEUlvE_E10_M_managerERSt9_Any_dataRKS8_St18_Manager_operation;_ZNSt14_Function_base13_Base_managerIZN9webserver9eventloop14add_connectionESt10shared_ptrINS1_14tcp_connectionEEEUlvE_E10_M_managerERSt9_Any_dataRKS8_St18_Manager_operation;_ZNSt14_Function_base13_Base_managerIZN9webserver9eventloop14add_connectionESt10shared_ptrINS1_14tcp_connectionEEEUlvE_E10_M_destroyERSt9_Any_dataSt17integral_constantIbLb0EE;_ZZN9webserver9eventloop14add_connectionESt10shared_ptrINS_14tcp_connectionEEENUlvE_D2Ev;_ZNSt12__shared_ptrIN9webserver14tcp_connectionELN9__gnu_cxx12_Lock_policyE2EED1Ev 10101010
echo_server;__libc_start_call_main;main;_ZN11echo_server5startEv;_ZN9webserver10tcp_server5startEv;_ZN9webserver9eventloop4loopEv;_ZN9webserver7channel12handle_eventENS_9timestampE;_ZN9webserver7channel23handle_event_with_guardENS_9timestampE;_ZNKSt8functionIFvN9webserver9timestampEEEclES1_;_ZNSt17_Function_handlerIFvN9webserver9timestampEEZNS0_8acceptor6listenEmEUlS1_E_E9_M_invokeERKSt9_Any_dataOS1_;_ZSt10__invoke_rIvRZN9webserver8acceptor6listenEmEUlNS0_9timestampEE_JS2_EENSt9enable_ifIX16is_invocable_r_vIT_T0_DpT1_EES6_E4typeEOS7_DpOS8_;_ZSt13__invoke_implIvRZN9webserver8acceptor6listenEmEUlNS0_9timestampEE_JS2_EET_St14__invoke_otherOT0_DpOT1_;_ZZN9webserver8acceptor6listenEmENKUlNS_9timestampEE_clES1_;_ZNSt7__cxx1112basic_stringIcSt11char_traitsIcESaIcEEC1IS3_EEPKcRKS3_;_ZNSt7__cxx1112basic_stringIcSt11char_traitsIcESaIcEE12_M_constructIPKcEEvT_S8_St20forward_iterator_tag;_ZN9__gnu_cxx17__is_null_pointerIKcEEbPT_ 10101010
echo_server;__libc_start_call_main;main;_ZN11echo_server5startEv;_ZN9webserver10tcp_server5startEv;_ZN9webserver9eventloop4loopEv;_ZN9webserver7channel12handle_eventENS_9timestampE;_ZN9webserver7channel23handle_event_with_guardENS_9timestampE;_ZNKSt8functionIFvN9webserver9timestampEEEclES1_;_ZNSt17_Function_handlerIFvN9webserver9timestampEEZNS0_8acceptor6listenEmEUlS1_E_E9_M_invokeERKSt9_Any_dataOS1_;_ZSt10__invoke_rIvRZN9webserver8acceptor6listenEmEUlNS0_9timestampEE_JS2_EENSt9enable_ifIX16is_invocable_r_vIT_T0_DpT1_EES6_E4typeEOS7_DpOS8_;_ZSt13__invoke_implIvRZN9webserver8acceptor6listenEmEUlNS0_9timestampEE_JS2_EET_St14__invoke_otherOT0_DpOT1_;_ZZN9webserver8acceptor6listenEmENKUlNS_9timestampEE_clES1_;_ZNSt7__cxx1112basic_stringIcSt11char_traitsIcESaIcEEC1IS3_EEPKcRKS3_;_ZNSt7__cxx1112basic_stringIcSt11char_traitsIcESaIcEE13_S_copy_charsEPcPKcS7_ 10101010
echo_server;__libc_start_call_main;main;_ZN11echo_server5startEv;_ZN9webserver10tcp_server5startEv;_ZN9webserver9eventloop4loopEv;_ZN9webserver7channel12handle_eventENS_9timestampE;_ZN9webserver7channel23handle_event_with_guardENS_9timestampE;_ZNKSt8functionIFvN9webserver9timestampEEEclES1_;_ZNSt17_Function_handlerIFvN9webserver9timestampEEZNS0_8acceptor6listenEmEUlS1_E_E9_M_invokeERKSt9_Any_dataOS1_;_ZSt10__invoke_rIvRZN9webserver8acceptor6listenEmEUlNS0_9timestampEE_JS2_EENSt9enable_ifIX16is_invocable_r_vIT_T0_DpT1_EES6_E4typeEOS7_DpOS8_;_ZSt13__invoke_implIvRZN9webserver8acceptor6listenEmEUlNS0_9timestampEE_JS2_EET_St14__invoke_otherOT0_DpOT1_;_ZZN9webserver8acceptor6listenEmENKUlNS_9timestampEE_clES1_;_ZNSt8functionIFvRKSt10shared_ptrIN9webserver14tcp_connectionEEEEC2ERKS7_;_ZNSt17_Function_handlerIFvRKSt10shared_ptrIN9webserver14tcp_connectionEEEZN11echo_serverC4ERKNS1_12inet_addressERKNSt7__cxx1112basic_stringIcSt11char_traitsIcESaIcEEEEUlS5_E_E10_M_managerERSt9_Any_dataRKSL_St18_Manager_operation;_ZNSt14_Function_base13_Base_managerIZN11echo_serverC4ERKN9webserver12inet_addressERKNSt7__cxx1112basic_stringIcSt11char_traitsIcESaIcEEEEUlRKSt10shared_ptrINS2_14tcp_connectionEEE_E14_M_get_pointerERKSt9_Any_data 10101010
echo_server;__libc_start_call_main;main;_ZN11echo_server5startEv;_ZN9webserver10tcp_server5startEv;_ZN9webserver9eventloop4loopEv;_ZN9webserver7channel12handle_eventENS_9timestampE;_ZN9webserver7channel23handle_event_with_guardENS_9timestampE;_ZNKSt8functionIFvN9webserver9timestampEEEclES1_;_ZNSt17_Function_handlerIFvN9webserver9timestampEEZNS0_8acceptor6listenEmEUlS1_E_E9_M_invokeERKSt9_Any_dataOS1_;_ZSt10__invoke_rIvRZN9webserver8acceptor6listenEmEUlNS0_9timestampEE_JS2_EENSt9enable_ifIX16is_invocable_r_vIT_T0_DpT1_EES6_E4typeEOS7_DpOS8_;_ZSt13__invoke_implIvRZN9webserver8acceptor6listenEmEUlNS0_9timestampEE_JS2_EET_St14__invoke_otherOT0_DpOT1_;_ZZN9webserver8acceptor6listenEmENKUlNS_9timestampEE_clES1_;_ZNSt8functionIFvRKSt10shared_ptrIN9webserver14tcp_connectionEEPNS1_6bufferENS1_9timestampEEEC1ERKSA_;_ZNSt17_Function_handlerIFvRKSt10shared_ptrIN9webserver14tcp_connectionEEPNS1_6bufferENS1_9timestampEEZN11echo_serverC4ERKNS1_12inet_addressERKNSt7__cxx1112basic_stringIcSt11char_traitsIcESaIcEEEEUlS5_S7_S8_E0_E10_M_managerERSt9_Any_dataRKSO_St18_Manager_operation;_ZNSt14_Function_base13_Base_managerIZN11echo_serverC4ERKN9webserver12inet_addressERKNSt7__cxx1112basic_stringIcSt11char_traitsIcESaIcEEEEUlRKSt10shared_ptrINS2_14tcp_connectionEEPNS2_6bufferENS2_9timestampEE0_E10_M_managerERSt9_Any_dataRKSO_St18_Manager_operation;_ZNSt14_Function_base13_Base_managerIZN11echo_serverC4ERKN9webserver12inet_addressERKNSt7__cxx1112basic_stringIcSt11char_traitsIcESaIcEEEEUlRKSt10shared_ptrINS2_14tcp_connectionEEPNS2_6bufferENS2_9timestampEE0_E14_M_get_pointerERKSt9_Any_data 10101010
echo_server;__libc_start_call_main;main;_ZN11echo_server5startEv;_ZN9webserver10tcp_server5startEv;_ZN9webserver9eventloop4loopEv;_ZN9webserver7channel12handle_eventENS_9timestampE;_ZN9webserver7channel23handle_event_with_guardENS_9timestampE;_ZNKSt8functionIFvN9webserver9timestampEEEclES1_;_ZNSt17_Function_handlerIFvN9webserver9timestampEEZNS0_8acceptor6listenEmEUlS1_E_E9_M_invokeERKSt9_Any_dataOS1_;_ZSt10__invoke_rIvRZN9webserver8acceptor6listenEmEUlNS0_9timestampEE_JS2_EENSt9enable_ifIX16is_invocable_r_vIT_T0_DpT1_EES6_E4typeEOS7_DpOS8_;_ZSt13__invoke_implIvRZN9webserver8acceptor6listenEmEUlNS0_9timestampEE_JS2_EET_St14__invoke_otherOT0_DpOT1_;_ZZN9webserver8acceptor6listenEmENKUlNS_9timestampEE_clES1_;_ZSt11make_sharedIN9webserver14tcp_connectionEJRNS0_9eventloopERiRNS0_12inet_addressES6_EESt10shared_ptrIT_EDpOT0_;_ZSt15allocate_sharedIN9webserver14tcp_connectionESaIS1_EJRNS0_9eventloopERiRNS0_12inet_addressES7_EESt10shared_ptrIT_ERKT0_DpOT1_;_ZNSt10shared_ptrIN9webserver14tcp_connectionEEC2ISaIS1_EJRNS0_9eventloopERiRNS0_12inet_addressES9_EEESt20_Sp_alloc_shared_tagIT_EDpOT0_;_ZNSt12__shared_ptrIN9webserver14tcp_connectionELN9__gnu_cxx12_Lock_policyE2EEC2ISaIS1_EJRNS0_9eventloopERiRNS0_12inet_addressESB_EEESt20_Sp_alloc_shared_tagIT_EDpOT0_;_ZNSt14__shared_countILN9__gnu_cxx12_Lock_policyE2EEC1IN9webserver14tcp_connectionESaIS5_EJRNS4_9eventloopERiRNS4_12inet_addressESB_EEERPT_St20_Sp_alloc_shared_tagIT0_EDpOT1_;_ZNSt16allocator_traitsISaISt23_Sp_counted_ptr_inplaceIN9webserver14tcp_connectionESaIS2_ELN9__gnu_cxx12_Lock_policyE2EEEE8allocateERS7_m 10101010
echo_server;__libc_start_call_main;main;_ZN11echo_server5startEv;_ZN9webserver10tcp_server5startEv;_ZN9webserver9eventloop4loopEv;_ZN9webserver7channel12handle_eventENS_9timestampE;_ZN9webserver7channel23handle_event_with_guardENS_9timestampE;_ZNKSt8functionIFvN9webserver9timestampEEEclES1_;_ZNSt17_Function_handlerIFvN9webserver9timestampEEZNS0_8acceptor6listenEmEUlS1_E_E9_M_invokeERKSt9_Any_dataOS1_;_ZSt10__invoke_rIvRZN9webserver8acceptor6listenEmEUlNS0_9timestampEE_JS2_EENSt9enable_ifIX16is_invocable_r_vIT_T0_DpT1_EES6_E4typeEOS7_DpOS8_;_ZSt13__invoke_implIvRZN9webserver8acceptor6listenEmEUlNS0_9timestampEE_JS2_EET_St14__invoke_otherOT0_DpOT1_;_ZZN9webserver8acceptor6listenEmENKUlNS_9timestampEE_clES1_;_ZSt11make_sharedIN9webserver14tcp_connectionEJRNS0_9eventloopERiRNS0_12inet_addressES6_EESt10shared_ptrIT_EDpOT0_;_ZSt15allocate_sharedIN9webserver14tcp_connectionESaIS1_EJRNS0_9eventloopERiRNS0_12inet_addressES7_EESt10shared_ptrIT_ERKT0_DpOT1_;_ZNSt10shared_ptrIN9webserver14tcp_connectionEEC2ISaIS1_EJRNS0_9eventloopERiRNS0_12inet_addressES9_EEESt20_Sp_alloc_shared_tagIT_EDpOT0_;_ZNSt12__shared_ptrIN9webserver14tcp_connectionELN9__gnu_cxx12_Lock_policyE2EEC2ISaIS1_EJRNS0_9eventloopERiRNS0_12inet_addressESB_EEESt20_Sp_alloc_shared_tagIT_EDpOT0_;_ZNSt14__shared_countILN9__gnu_cxx12_Lock_policyE2EEC1IN9webserver14tcp_connectionESaIS5_EJRNS4_9eventloopERiRNS4_12inet_addressESB_EEERPT_St20_Sp_alloc_shared_tagIT0_EDpOT1_;_ZNSt23_Sp_counted_ptr_inplaceIN9webserver14tcp_connectionESaIS1_ELN9__gnu_cxx12_Lock_policyE2EEC1IJRNS0_9eventloopERiRNS0_12inet_addressESB_EEES2_DpOT_;_ZNSt16allocator_traitsISaIN9webserver14tcp_connectionEEE9constructIS1_JRNS0_9eventloopERiRNS0_12inet_addressES9_EEEvRS2_PT_DpOT0_;_ZN9__gnu_cxx13new_allocatorIN9webserver14tcp_connectionEE9constructIS2_JRNS1_9eventloopERiRNS1_12inet_addressES9_EEEvPT_DpOT0_;_ZN9webserver14tcp_connectionC2ERNS_9eventloopEiRKNS_12inet_addressES5_ 10101010
echo_server;__libc_start_call_main;main;_ZN11echo_server5startEv;_ZN9webserver10tcp_server5startEv;_ZN9webserver9eventloop4loopEv;_ZN9webserver7channel12handle_eventENS_9timestampE;_ZN9webserver7channel23handle_event_with_guardENS_9timestampE;_ZNKSt8functionIFvN9webserver9timestampEEEclES1_;_ZNSt17_Function_handlerIFvN9webserver9timestampEEZNS0_8acceptor6listenEmEUlS1_E_E9_M_invokeERKSt9_Any_dataOS1_;_ZSt10__invoke_rIvRZN9webserver8acceptor6listenEmEUlNS0_9timestampEE_JS2_EENSt9enable_ifIX16is_invocable_r_vIT_T0_DpT1_EES6_E4typeEOS7_DpOS8_;_ZSt13__invoke_implIvRZN9webserver8acceptor6listenEmEUlNS0_9timestampEE_JS2_EET_St14__invoke_otherOT0_DpOT1_;_ZZN9webserver8acceptor6listenEmENKUlNS_9timestampEE_clES1_;_ZSt11make_sharedIN9webserver14tcp_connectionEJRNS0_9eventloopERiRNS0_12inet_addressES6_EESt10shared_ptrIT_EDpOT0_;_ZSt15allocate_sharedIN9webserver14tcp_connectionESaIS1_EJRNS0_9eventloopERiRNS0_12inet_addressES7_EESt10shared_ptrIT_ERKT0_DpOT1_;_ZNSt10shared_ptrIN9webserver14tcp_connectionEEC2ISaIS1_EJRNS0_9eventloopERiRNS0_12inet_addressES9_EEESt20_Sp_alloc_shared_tagIT_EDpOT0_;_ZNSt12__shared_ptrIN9webserver14tcp_connectionELN9__gnu_cxx12_Lock_policyE2EEC2ISaIS1_EJRNS0_9eventloopERiRNS0_12inet_addressESB_EEESt20_Sp_alloc_shared_tagIT_EDpOT0_;_ZNSt14__shared_countILN9__gnu_cxx12_Lock_policyE2EEC1IN9webserver14tcp_connectionESaIS5_EJRNS4_9eventloopERiRNS4_12inet_addressESB_EEERPT_St20_Sp_alloc_shared_tagIT0_EDpOT1_;_ZNSt23_Sp_counted_ptr_inplaceIN9webserver14tcp_connectionESaIS1_ELN9__gnu_cxx12_Lock_policyE2EEC1IJRNS0_9eventloopERiRNS0_12inet_addressESB_EEES2_DpOT_;_ZNSt16allocator_traitsISaIN9webserver14tcp_connectionEEE9constructIS1_JRNS0_9eventloopERiRNS0_12inet_addressES9_EEEvRS2_PT_DpOT0_;_ZN9__gnu_cxx13new_allocatorIN9webserver14tcp_connectionEE9constructIS2_JRNS1_9eventloopERiRNS1_12inet_addressES9_EEEvPT_DpOT0_;_ZN9webserver14tcp_connectionC2ERNS_9eventloopEiRKNS_12inet_addressES5_;_ZN9webserver6bufferC2Em;_ZNSt6vectorIcSaIcEEC2EmRKS0_;_ZNSt12_Vector_baseIcSaIcEEC1EmRKS0_;_ZNSt12_Vector_baseIcSaIcEE17_M_create_storageEm 10101010
echo_server;__libc_start_call_main;main;_ZN11echo_server5startEv;_ZN9webserver10tcp_server5startEv;_ZN9webserver9eventloop4loopEv;_ZN9webserver7channel12handle_eventENS_9timestampE;_ZN9webserver7channel23handle_event_with_guardENS_9timestampE;_ZNKSt8functionIFvN9webserver9timestampEEEclES1_;_ZNSt17_Function_handlerIFvN9webserver9timestampEEZNS0_8acceptor6listenEmEUlS1_E_E9_M_invokeERKSt9_Any_dataOS1_;_ZSt10__invoke_rIvRZN9webserver8acceptor6listenEmEUlNS0_9timestampEE_JS2_EENSt9enable_ifIX16is_invocable_r_vIT_T0_DpT1_EES6_E4typeEOS7_DpOS8_;_ZSt13__invoke_implIvRZN9webserver8acceptor6listenEmEUlNS0_9timestampEE_JS2_EET_St14__invoke_otherOT0_DpOT1_;_ZZN9webserver8acceptor6listenEmENKUlNS_9timestampEE_clES1_;_ZSt11make_sharedIN9webserver14tcp_connectionEJRNS0_9eventloopERiRNS0_12inet_addressES6_EESt10shared_ptrIT_EDpOT0_;_ZSt15allocate_sharedIN9webserver14tcp_connectionESaIS1_EJRNS0_9eventloopERiRNS0_12inet_addressES7_EESt10shared_ptrIT_ERKT0_DpOT1_;_ZNSt10shared_ptrIN9webserver14tcp_connectionEEC2ISaIS1_EJRNS0_9eventloopERiRNS0_12inet_addressES9_EEESt20_Sp_alloc_shared_tagIT_EDpOT0_;_ZNSt12__shared_ptrIN9webserver14tcp_connectionELN9__gnu_cxx12_Lock_policyE2EEC2ISaIS1_EJRNS0_9eventloopERiRNS0_12inet_addressESB_EEESt20_Sp_alloc_shared_tagIT_EDpOT0_;_ZNSt14__shared_countILN9__gnu_cxx12_Lock_policyE2EEC1IN9webserver14tcp_connectionESaIS5_EJRNS4_9eventloopERiRNS4_12inet_addressESB_EEERPT_St20_Sp_alloc_shared_tagIT0_EDpOT1_;_ZNSt23_Sp_counted_ptr_inplaceIN9webserver14tcp_connectionESaIS1_ELN9__gnu_cxx12_Lock_policyE2EEC1IJRNS0_9eventloopERiRNS0_12inet_addressESB_EEES2_DpOT_;_ZNSt16allocator_traitsISaIN9webserver14tcp_connectionEEE9constructIS1_JRNS0_9eventloopERiRNS0_12inet_addressES9_EEEvRS2_PT_DpOT0_;_ZN9__gnu_cxx13new_allocatorIN9webserver14tcp_connectionEE9constructIS2_JRNS1_9eventloopERiRNS1_12inet_addressES9_EEEvPT_DpOT0_;_ZN9webserver14tcp_connectionC2ERNS_9eventloopEiRKNS_12inet_addressES5_;_ZN9webserver6bufferC2Em;_ZNSt6vectorIcSaIcEEC2EmRKS0_;_ZNSt6vectorIcSaIcEE17_S_check_init_lenEmRKS0_ 10101010
echo_server;__libc_start_call_main;main;_ZN11echo_server5startEv;_ZN9webserver10tcp_server5startEv;_ZN9webserver9eventloop4loopEv;_ZN9webserver7channel12handle_eventENS_9timestampE;_ZN9webserver7channel23handle_event_with_guardENS_9timestampE;_ZNKSt8functionIFvN9webserver9timestampEEEclES1_;_ZNSt17_Function_handlerIFvN9webserver9timestampEEZNS0_8acceptor6listenEmEUlS1_E_E9_M_invokeERKSt9_Any_dataOS1_;_ZSt10__invoke_rIvRZN9webserver8acceptor6listenEmEUlNS0_9timestampEE_JS2_EENSt9enable_ifIX16is_invocable_r_vIT_T0_DpT1_EES6_E4typeEOS7_DpOS8_;_ZSt13__invoke_implIvRZN9webserver8acceptor6listenEmEUlNS0_9timestampEE_JS2_EET_St14__invoke_otherOT0_DpOT1_;_ZZN9webserver8acceptor6listenEmENKUlNS_9timestampEE_clES1_;_ZSt11make_sharedIN9webserver14tcp_connectionEJRNS0_9eventloopERiRNS0_12inet_addressES6_EESt10shared_ptrIT_EDpOT0_;_ZSt15allocate_sharedIN9webserver14tcp_connectionESaIS1_EJRNS0_9eventloopERiRNS0_12inet_addressES7_EESt10shared_ptrIT_ERKT0_DpOT1_;_ZNSt10shared_ptrIN9webserver14tcp_connectionEEC2ISaIS1_EJRNS0_9eventloopERiRNS0_12inet_addressES9_EEESt20_Sp_alloc_shared_tagIT_EDpOT0_;_ZNSt12__shared_ptrIN9webserver14tcp_connectionELN9__gnu_cxx12_Lock_policyE2EEC2ISaIS1_EJRNS0_9eventloopERiRNS0_12inet_addressESB_EEESt20_Sp_alloc_shared_tagIT_EDpOT0_;_ZNSt14__shared_countILN9__gnu_cxx12_Lock_policyE2EEC1IN9webserver14tcp_connectionESaIS5_EJRNS4_9eventloopERiRNS4_12inet_addressESB_EEERPT_St20_Sp_alloc_shared_tagIT0_EDpOT1_;_ZNSt23_Sp_counted_ptr_inplaceIN9webserver14tcp_connectionESaIS1_ELN9__gnu_cxx12_Lock_policyE2EEC1IJRNS0_9eventloopERiRNS0_12inet_addressESB_EEES2_DpOT_;_ZNSt16allocator_traitsISaIN9webserver14tcp_connectionEEE9constructIS1_JRNS0_9eventloopERiRNS0_12inet_addressES9_EEEvRS2_PT_DpOT0_;_ZN9__gnu_cxx13new_allocatorIN9webserver14tcp_connectionEE9constructIS2_JRNS1_9eventloopERiRNS1_12inet_addressES9_EEEvPT_DpOT0_;_ZN9webserver14tcp_connectionC2ERNS_9eventloopEiRKNS_12inet_addressES5_;_ZN9webserver6bufferC2Em;_ZNSt6vectorIcSaIcEEC2EmRKS0_;_ZNSt6vectorIcSaIcEE21_M_default_initializeEm;_ZSt27__uninitialized_default_n_aIPcmcET_S1_T0_RSaIT1_E;_ZSt25__uninitialized_default_nIPcmET_S1_T0_;_ZNSt27__uninitialized_default_n_1ILb1EE18__uninit_default_nIPcmEET_S3_T0_;_ZSt11__addressofIcEPT_RS0_ 10101010
echo_server;__libc_start_call_main;main;_ZN11echo_server5startEv;_ZN9webserver10tcp_server5startEv;_ZN9webserver9eventloop4loopEv;_ZN9webserver7channel12handle_eventENS_9timestampE;_ZN9webserver7channel23handle_event_with_guardENS_9timestampE;_ZNKSt8functionIFvN9webserver9timestampEEEclES1_;_ZNSt17_Function_handlerIFvN9webserver9timestampEEZNS0_8acceptor6listenEmEUlS1_E_E9_M_invokeERKSt9_Any_dataOS1_;_ZSt10__invoke_rIvRZN9webserver8acceptor6listenEmEUlNS0_9timestampEE_JS2_EENSt9enable_ifIX16is_invocable_r_vIT_T0_DpT1_EES6_E4typeEOS7_DpOS8_;_ZSt13__invoke_implIvRZN9webserver8acceptor6listenEmEUlNS0_9timestampEE_JS2_EET_St14__invoke_otherOT0_DpOT1_;_ZZN9webserver8acceptor6listenEmENKUlNS_9timestampEE_clES1_;_ZSt11make_sharedIN9webserver14tcp_connectionEJRNS0_9eventloopERiRNS0_12inet_addressES6_EESt10shared_ptrIT_EDpOT0_;_ZSt15allocate_sharedIN9webserver14tcp_connectionESaIS1_EJRNS0_9eventloopERiRNS0_12inet_addressES7_EESt10shared_ptrIT_ERKT0_DpOT1_;_ZNSt10shared_ptrIN9webserver14tcp_connectionEEC2ISaIS1_EJRNS0_9eventloopERiRNS0_12inet_addressES9_EEESt20_Sp_alloc_shared_tagIT_EDpOT0_;_ZNSt12__shared_ptrIN9webserver14tcp_connectionELN9__gnu_cxx12_Lock_policyE2EEC2ISaIS1_EJRNS0_9eventloopERiRNS0_12inet_addressESB_EEESt20_Sp_alloc_shared_tagIT_EDpOT0_;_ZNSt14__shared_countILN9__gnu_cxx12_Lock_policyE2EEC1IN9webserver14tcp_connectionESaIS5_EJRNS4_9eventloopERiRNS4_12inet_addressESB_EEERPT_St20_Sp_alloc_shared_tagIT0_EDpOT1_;_ZNSt23_Sp_counted_ptr_inplaceIN9webserver14tcp_connectionESaIS1_ELN9__gnu_cxx12_Lock_policyE2EEC1IJRNS0_9eventloopERiRNS0_12inet_addressESB_EEES2_DpOT_;_ZNSt16allocator_traitsISaIN9webserver14tcp_connectionEEE9constructIS1_JRNS0_9eventloopERiRNS0_12inet_addressES9_EEEvRS2_PT_DpOT0_;_ZN9__gnu_cxx13new_allocatorIN9webserver14tcp_connectionEE9constructIS2_JRNS1_9eventloopERiRNS1_12inet_addressES9_EEEvPT_DpOT0_;_ZN9webserver14tcp_connectionC2ERNS_9eventloopEiRKNS_12inet_addressES5_;_ZN9webserver7channel18set_close_callbackESt8functionIFvvEE;_ZNSt8functionIFvvEED2Ev 10101010
echo_server;__libc_start_call_main;main;_ZN11echo_server5startEv;_ZN9webserver10tcp_server5startEv;_ZN9webserver9eventloop4loopEv;_ZN9webserver7channel12handle_eventENS_9timestampE;_ZN9webserver7channel23handle_event_with_guardENS_9timestampE;_ZNKSt8functionIFvN9webserver9timestampEEEclES1_;_ZNSt17_Function_handlerIFvN9webserver9timestampEEZNS0_8acceptor6listenEmEUlS1_E_E9_M_invokeERKSt9_Any_dataOS1_;_ZSt10__invoke_rIvRZN9webserver8acceptor6listenEmEUlNS0_9timestampEE_JS2_EENSt9enable_ifIX16is_invocable_r_vIT_T0_DpT1_EES6_E4typeEOS7_DpOS8_;_ZSt13__invoke_implIvRZN9webserver8acceptor6listenEmEUlNS0_9timestampEE_JS2_EET_St14__invoke_otherOT0_DpOT1_;_ZZN9webserver8acceptor6listenEmENKUlNS_9timestampEE_clES1_;_ZSt11make_sharedIN9webserver14tcp_connectionEJRNS0_9eventloopERiRNS0_12inet_addressES6_EESt10shared_ptrIT_EDpOT0_;_ZSt15allocate_sharedIN9webserver14tcp_connectionESaIS1_EJRNS0_9eventloopERiRNS0_12inet_addressES7_EESt10shared_ptrIT_ERKT0_DpOT1_;_ZNSt10shared_ptrIN9webserver14tcp_connectionEEC2ISaIS1_EJRNS0_9eventloopERiRNS0_12inet_addressES9_EEESt20_Sp_alloc_shared_tagIT_EDpOT0_;_ZNSt12__shared_ptrIN9webserver14tcp_connectionELN9__gnu_cxx12_Lock_policyE2EEC2ISaIS1_EJRNS0_9eventloopERiRNS0_12inet_addressESB_EEESt20_Sp_alloc_shared_tagIT_EDpOT0_;_ZNSt14__shared_countILN9__gnu_cxx12_Lock_policyE2EEC1IN9webserver14tcp_connectionESaIS5_EJRNS4_9eventloopERiRNS4_12inet_addressESB_EEERPT_St20_Sp_alloc_shared_tagIT0_EDpOT1_;_ZNSt23_Sp_counted_ptr_inplaceIN9webserver14tcp_connectionESaIS1_ELN9__gnu_cxx12_Lock_policyE2EEC1IJRNS0_9eventloopERiRNS0_12inet_addressESB_EEES2_DpOT_;_ZNSt16allocator_traitsISaIN9webserver14tcp_connectionEEE9constructIS1_JRNS0_9eventloopERiRNS0_12inet_addressES9_EEEvRS2_PT_DpOT0_;_ZN9__gnu_cxx13new_allocatorIN9webserver14tcp_connectionEE9constructIS2_JRNS1_9eventloopERiRNS1_12inet_addressES9_EEEvPT_DpOT0_;_ZN9webserver14tcp_connectionC2ERNS_9eventloopEiRKNS_12inet_addressES5_;_ZN9webserver7channel18set_close_callbackESt8functionIFvvEE;_ZNSt8functionIFvvEEaSEOS1_;_ZNSt8functionIFvvEEC1EOS1_ 10101010
echo_server;__libc_start_call_main;main;_ZN11echo_server5startEv;_ZN9webserver10tcp_server5startEv;_ZN9webserver9eventloop4loopEv;_ZN9webserver7channel12handle_eventENS_9timestampE;_ZN9webserver7channel23handle_event_with_guardENS_9timestampE;_ZNKSt8functionIFvN9webserver9timestampEEEclES1_;_ZNSt17_Function_handlerIFvN9webserver9timestampEEZNS0_8acceptor6listenEmEUlS1_E_E9_M_invokeERKSt9_Any_dataOS1_;_ZSt10__invoke_rIvRZN9webserver8acceptor6listenEmEUlNS0_9timestampEE_JS2_EENSt9enable_ifIX16is_invocable_r_vIT_T0_DpT1_EES6_E4typeEOS7_DpOS8_;_ZSt13__invoke_implIvRZN9webserver8acceptor6listenEmEUlNS0_9timestampEE_JS2_EET_St14__invoke_otherOT0_DpOT1_;_ZZN9webserver8acceptor6listenEmENKUlNS_9timestampEE_clES1_;_ZSt11make_sharedIN9webserver14tcp_connectionEJRNS0_9eventloopERiRNS0_12inet_addressES6_EESt10shared_ptrIT_EDpOT0_;_ZSt15allocate_sharedIN9webserver14tcp_connectionESaIS1_EJRNS0_9eventloopERiRNS0_12inet_addressES7_EESt10shared_ptrIT_ERKT0_DpOT1_;_ZNSt10shared_ptrIN9webserver14tcp_connectionEEC2ISaIS1_EJRNS0_9eventloopERiRNS0_12inet_addressES9_EEESt20_Sp_alloc_shared_tagIT_EDpOT0_;_ZNSt12__shared_ptrIN9webserver14tcp_connectionELN9__gnu_cxx12_Lock_policyE2EEC2ISaIS1_EJRNS0_9eventloopERiRNS0_12inet_addressESB_EEESt20_Sp_alloc_shared_tagIT_EDpOT0_;_ZNSt14__shared_countILN9__gnu_cxx12_Lock_policyE2EEC1IN9webserver14tcp_connectionESaIS5_EJRNS4_9eventloopERiRNS4_12inet_addressESB_EEERPT_St20_Sp_alloc_shared_tagIT0_EDpOT1_;_ZNSt23_Sp_counted_ptr_inplaceIN9webserver14tcp_connectionESaIS1_ELN9__gnu_cxx12_Lock_policyE2EEC1IJRNS0_9eventloopERiRNS0_12inet_addressESB_EEES2_DpOT_;_ZNSt16allocator_traitsISaIN9webserver14tcp_connectionEEE9constructIS1_JRNS0_9eventloopERiRNS0_12inet_addressES9_EEEvRS2_PT_DpOT0_;_ZN9__gnu_cxx13new_allocatorIN9webserver14tcp_connectionEE9constructIS2_JRNS1_9eventloopERiRNS1_12inet_addressES9_EEEvPT_DpOT0_;_ZN9webserver14tcp_connectionC2ERNS_9eventloopEiRKNS_12inet_addressES5_;_ZN9webserver7channel18set_close_callbackESt8functionIFvvEE;_ZNSt8functionIFvvEEaSEOS1_;_ZNSt8functionIFvvEEC1EOS1_;_ZNKSt8functionIFvvEEcvbEv;_ZNKSt14_Function_base8_M_emptyEv 10101010
echo_server;__libc_start_call_main;main;_ZN11echo_server5startEv;_ZN9webserver10tcp_server5startEv;_ZN9webserver9eventloop4loopEv;_ZN9webserver7channel12handle_eventENS_9timestampE;_ZN9webserver7channel23handle_event_with_guardENS_9timestampE;_ZNKSt8functionIFvN9webserver9timestampEEEclES1_;_ZNSt17_Function_handlerIFvN9webserver9timestampEEZNS0_8acceptor6listenEmEUlS1_E_E9_M_invokeERKSt9_Any_dataOS1_;_ZSt10__invoke_rIvRZN9webserver8acceptor6listenEmEUlNS0_9timestampEE_JS2_EENSt9enable_ifIX16is_invocable_r_vIT_T0_DpT1_EES6_E4typeEOS7_DpOS8_;_ZSt13__invoke_implIvRZN9webserver8acceptor6listenEmEUlNS0_9timestampEE_JS2_EET_St14__invoke_otherOT0_DpOT1_;_ZZN9webserver8acceptor6listenEmENKUlNS_9timestampEE_clES1_;_ZSt11make_sharedIN9webserver14tcp_connectionEJRNS0_9eventloopERiRNS0_12inet_addressES6_EESt10shared_ptrIT_EDpOT0_;_ZSt15allocate_sharedIN9webserver14tcp_connectionESaIS1_EJRNS0_9eventloopERiRNS0_12inet_addressES7_EESt10shared_ptrIT_ERKT0_DpOT1_;_ZNSt10shared_ptrIN9webserver14tcp_connectionEEC2ISaIS1_EJRNS0_9eventloopERiRNS0_12inet_addressES9_EEESt20_Sp_alloc_shared_tagIT_EDpOT0_;_ZNSt12__shared_ptrIN9webserver14tcp_connectionELN9__gnu_cxx12_Lock_policyE2EEC2ISaIS1_EJRNS0_9eventloopERiRNS0_12inet_addressESB_EEESt20_Sp_alloc_shared_tagIT_EDpOT0_;_ZNSt14__shared_countILN9__gnu_cxx12_Lock_policyE2EEC1IN9webserver14tcp_connectionESaIS5_EJRNS4_9eventloopERiRNS4_12inet_addressESB_EEERPT_St20_Sp_alloc_shared_tagIT0_EDpOT1_;_ZNSt23_Sp_counted_ptr_inplaceIN9webserver14tcp_connectionESaIS1_ELN9__gnu_cxx12_Lock_policyE2EEC1IJRNS0_9eventloopERiRNS0_12inet_addressESB_EEES2_DpOT_;_ZNSt16allocator_traitsISaIN9webserver14tcp_connectionEEE9constructIS1_JRNS0_9eventloopERiRNS0_12inet_addressES9_EEEvRS2_PT_DpOT0_;_ZN9__gnu_cxx13new_allocatorIN9webserver14tcp_connectionEE9constructIS2_JRNS1_9eventloopERiRNS1_12inet_addressES9_EEEvPT_DpOT0_;_ZN9webserver14tcp_connectionC2ERNS_9eventloopEiRKNS_12inet_addressES5_;_ZNSt8functionIFvRKSt10shared_ptrIN9webserver14tcp_connectionEEPNS1_6bufferENS1_9timestampEEEC1Ev 10101010
echo_server;__libc_start_call_main;main;_ZN11echo_server5startEv;_ZN9webserver10tcp_server5startEv;_ZN9webserver9eventloop4loopEv;_ZN9webserver7channel12handle_eventENS_9timestampE;_ZN9webserver7channel23handle_event_with_guardENS_9timestampE;_ZNKSt8functionIFvN9webserver9timestampEEEclES1_;_ZNSt17_Function_handlerIFvN9webserver9timestampEEZNS0_8acceptor6listenEmEUlS1_E_E9_M_invokeERKSt9_Any_dataOS1_;_ZSt10__invoke_rIvRZN9webserver8acceptor6listenEmEUlNS0_9timestampEE_JS2_EENSt9enable_ifIX16is_invocable_r_vIT_T0_DpT1_EES6_E4typeEOS7_DpOS8_;_ZSt13__invoke_implIvRZN9webserver8acceptor6listenEmEUlNS0_9timestampEE_JS2_EET_St14__invoke_otherOT0_DpOT1_;_ZZN9webserver8acceptor6listenEmENKUlNS_9timestampEE_clES1_;_ZSt11make_sharedIN9webserver14tcp_connectionEJRNS0_9eventloopERiRNS0_12inet_addressES6_EESt10shared_ptrIT_EDpOT0_;_ZSt15allocate_sharedIN9webserver14tcp_connectionESaIS1_EJRNS0_9eventloopERiRNS0_12inet_addressES7_EESt10shared_ptrIT_ERKT0_DpOT1_;_ZNSt10shared_ptrIN9webserver14tcp_connectionEEC2ISaIS1_EJRNS0_9eventloopERiRNS0_12inet_addressES9_EEESt20_Sp_alloc_shared_tagIT_EDpOT0_;_ZNSt12__shared_ptrIN9webserver14tcp_connectionELN9__gnu_cxx12_Lock_policyE2EEC2ISaIS1_EJRNS0_9eventloopERiRNS0_12inet_addressESB_EEESt20_Sp_alloc_shared_tagIT_EDpOT0_;_ZNSt14__shared_countILN9__gnu_cxx12_Lock_policyE2EEC1IN9webserver14tcp_connectionESaIS5_EJRNS4_9eventloopERiRNS4_12inet_addressESB_EEERPT_St20_Sp_alloc_shared_tagIT0_EDpOT1_;_ZNSt23_Sp_counted_ptr_inplaceIN9webserver14tcp_connectionESaIS1_ELN9__gnu_cxx12_Lock_policyE2EEC1IJRNS0_9eventloopERiRNS0_12inet_addressESB_EEES2_DpOT_;_ZNSt16allocator_traitsISaIN9webserver14tcp_connectionEEE9constructIS1_JRNS0_9eventloopERiRNS0_12inet_addressES9_EEEvRS2_PT_DpOT0_;_ZN9__gnu_cxx13new_allocatorIN9webserver14tcp_connectionEE9constructIS2_JRNS1_9eventloopERiRNS1_12inet_addressES9_EEEvPT_DpOT0_;_ZN9webserver14tcp_connectionC2ERNS_9eventloopEiRKNS_12inet_addressES5_;__GI___setsockopt 10101010
echo_server;__libc_start_call_main;main;_ZN11echo_server5startEv;_ZN9webserver10tcp_server5startEv;_ZN9webserver9eventloop4loopEv;_ZN9webserver7channel12handle_eventENS_9timestampE;_ZN9webserver7channel23handle_event_with_guardENS_9timestampE;_ZNKSt8functionIFvN9webserver9timestampEEEclES1_;_ZNSt17_Function_handlerIFvN9webserver9timestampEEZNS0_8acceptor6listenEmEUlS1_E_E9_M_invokeERKSt9_Any_dataOS1_;_ZSt10__invoke_rIvRZN9webserver8acceptor6listenEmEUlNS0_9timestampEE_JS2_EENSt9enable_ifIX16is_invocable_r_vIT_T0_DpT1_EES6_E4typeEOS7_DpOS8_;_ZSt13__invoke_implIvRZN9webserver8acceptor6listenEmEUlNS0_9timestampEE_JS2_EET_St14__invoke_otherOT0_DpOT1_;_ZZN9webserver8acceptor6listenEmENKUlNS_9timestampEE_clES1_;_ZSt11make_sharedIN9webserver14tcp_connectionEJRNS0_9eventloopERiRNS0_12inet_addressES6_EESt10shared_ptrIT_EDpOT0_;_ZSt7forwardIRN9webserver9eventloopEEOT_RNSt16remove_referenceIS3_E4typeE 10101010
echo_server;__libc_start_call_main;main;_ZN11echo_server5startEv;_ZN9webserver10tcp_server5startEv;_ZN9webserver9eventloop4loopEv;_ZN9webserver7epoller4pollEiRSt6vectorIPNS_7channelESaIS3_EE 10101010
echo_server;__libc_start_call_main;main;_ZN11echo_server5startEv;_ZN9webserver10tcp_server5startEv;_ZN9webserver9eventloop4loopEv;_ZN9webserver7epoller4pollEiRSt6vectorIPNS_7channelESaIS3_EE;_ZN9webserver9timestamp3nowEv 10101010
echo_server;__libc_start_call_main;main;_ZN11echo_server5startEv;_ZN9webserver10tcp_server5startEv;_ZN9webserver9eventloop4loopEv;_ZN9webserver7epoller4pollEiRSt6vectorIPNS_7channelESaIS3_EE;_ZN9webserver9timestamp3nowEv;__vdso_gettimeofday 10101010
echo_server;__libc_start_call_main;main;_ZN11echo_server5startEv;_ZN9webserver10tcp_server5startEv;_ZN9webserver9eventloop4loopEv;_ZN9webserver7epoller4pollEiRSt6vectorIPNS_7channelESaIS3_EE;_ZNSt6vectorIPN9webserver7channelESaIS2_EE9push_backERKS2_;_ZNSt6vectorIPN9webserver7channelESaIS2_EE17_M_realloc_insertIJRKS2_EEEvN9__gnu_cxx17__normal_iteratorIPS2_S4_EEDpOT_;_ZNSt6vectorIPN9webserver7channelESaIS2_EE5beginEv 10101010
echo_server;__libc_start_call_main;main;_ZN11echo_server5startEv;_ZN9webserver10tcp_server5startEv;_ZN9webserver9eventloop4loopEv;_ZN9webserver9eventloop21run_pending_callbacksEv;_ZNSt11unique_lockISt5mutexEC1ERS0_;_ZNSt11unique_lockISt5mutexE4lockEv;_ZNSt5mutex4lockEv;_ZL18__gthread_active_pv 10101010
echo_server;__libc_start_call_main;main;_ZN11echo_server5startEv;_ZN9webserver10tcp_server5startEv;_ZN9webserver9eventloop4loopEv;_ZN9webserver9eventloop21run_pending_callbacksEv;_ZNSt6atomicIbEaSEb;_ZNSt13__atomic_baseIbEaSEb 10101010
echo_server;__libc_start_call_main;main;_ZN11echo_server5startEv;_ZN9webserver10tcp_server5startEv;_ZN9webserver9eventloop4loopEv;_ZN9webserver9eventloop21run_pending_callbacksEv;_ZNSt6atomicIbEaSEb;_ZStanSt12memory_orderSt23__memory_order_modifier 10101010
echo_server;__libc_start_call_main;main;_ZN11echo_server5startEv;_ZN9webserver10tcp_server5startEv;_ZN9webserver9eventloop4loopEv;_ZN9webserver9eventloop21run_pending_callbacksEv;_ZNSt6vectorISt8functionIFvvEESaIS2_EE4swapERS4_;_ZN9__gnu_cxx14__alloc_traitsISaISt8functionIFvvEEES3_E10_S_on_swapERS4_S6_ 10101010
echo_server;__libc_start_call_main;main;_ZN11echo_server5startEv;_ZN9webserver10tcp_server5startEv;_ZN9webserver9eventloop4loopEv;_ZN9webserver9eventloop21run_pending_callbacksEv;_ZNSt6vectorISt8functionIFvvEESaIS2_EED2Ev;_ZNSt12_Vector_baseISt8functionIFvvEESaIS2_EED2Ev 10101010
echo_server;__libc_start_call_main;main;_ZN11echo_server5startEv;_ZN9webserver10tcp_server5startEv;_ZN9webserver9eventloop4loopEv;_ZN9webserver9eventloop21run_pending_callbacksEv;_ZNSt6vectorISt8functionIFvvEESaIS2_EED2Ev;_ZSt8_DestroyIPSt8functionIFvvEEEvT_S4_ 10101010
echo_server;__libc_start_call_main;main;_ZN11echo_server5startEv;_ZN9webserver10tcp_server5startEv;_ZN9webserver9eventloop4loopEv;_ZNSt6vectorIPN9webserver7channelESaIS2_EED1Ev;_ZNSt12_Vector_baseIPN9webserver7channelESaIS2_EED1Ev;_ZNSt12_Vector_baseIPN9webserver7channelESaIS2_EE13_M_deallocateEPS2_m;_ZN9__gnu_cxx13new_allocatorIPN9webserver7channelEE10deallocateEPS3_m 10101010
echo_server;__libc_start_call_main;main;_ZN11echo_server5startEv;_ZN9webserver10tcp_server5startEv;_ZN9webserver9eventloop4loopEv;epoll_wait 20202020
echo_server;_int_malloc 20202020
echo_server;malloc 40404040
echo_server;malloc_consolidate 10101010
echo_server;unlink_chunk.constprop.0 10101010
